(dp0
S'[73.0, 142.0]'
p1
(lp2
S'14'
p3
aS'17.0'
p4
asS'[157.0, 218.0]'
p5
(lp6
S'29'
p7
aS'2.0'
p8
asS'[29.0, 305.0]'
p9
(lp10
S'26'
p11
aS'5.0'
p12
asS'[178.0, 238.0, 305.0]'
p13
(lp14
S'29'
p15
aS'2.0'
p16
asS'[74.0, 219.0]'
p17
(lp18
S'20'
p19
aS'11.0'
p20
asS'[72.0, 144.0]'
p21
(lp22
S'27'
p23
aS'4.0'
p24
asS'[241.0, 277.0]'
p25
(lp26
S'29'
p27
aS'2.0'
p28
asS'[117.0, 192.0]'
p29
(lp30
S'29'
p31
aS'2.0'
p32
asS'[61.0, 89.0]'
p33
(lp34
S'29'
p35
aS'2.0'
p36
asS'[72.0, 76.0, 237.0]'
p37
(lp38
S'29'
p39
aS'2.0'
p40
asS'[90.0, 198.0]'
p41
(lp42
S'29'
p43
aS'2.0'
p44
asS'[119.0, 158.0]'
p45
(lp46
S'28'
p47
aS'3.0'
p48
asS'[111.0]'
p49
(lp50
S'15'
p51
aS'16.0'
p52
asS'[71.0, 73.0, 216.0]'
p53
(lp54
S'29'
p55
aS'2.0'
p56
asS'[48.0, 82.0]'
p57
(lp58
S'26'
p59
aS'5.0'
p60
asS'[172.0, 217.0]'
p61
(lp62
S'27'
p63
aS'4.0'
p64
asS'[219.0, 277.0]'
p65
(lp66
S'29'
p67
aS'2.0'
p68
asS'[149.0, 218.0]'
p69
(lp70
S'28'
p71
aS'3.0'
p72
asS'[135.0, 202.0]'
p73
(lp74
S'29'
p75
aS'2.0'
p76
asS'[157.0, 216.0]'
p77
(lp78
S'21'
p79
aS'10.0'
p80
asS'[167.0, 305.0]'
p81
(lp82
S'28'
p83
aS'3.0'
p84
asS'[194.0, 223.0]'
p85
(lp86
S'28'
p87
aS'3.0'
p88
asS'[215.0]'
p89
(lp90
S'23'
p91
aS'8.0'
p92
asS'[134.0, 306.0]'
p93
(lp94
S'21'
p95
aS'10.0'
p96
asS'[149.0, 206.0]'
p97
(lp98
S'28'
p99
aS'3.0'
p100
asS'[117.0, 153.0, 220.0]'
p101
(lp102
S'26'
p103
aS'5.0'
p104
asS'[62.0, 72.0, 78.0]'
p105
(lp106
S'28'
p107
aS'3.0'
p108
asS'[51.0, 57.0, 88.0, 109.0]'
p109
(lp110
S'29'
p111
aS'2.0'
p112
asS'[95.0, 104.0]'
p113
(lp114
S'29'
p115
aS'2.0'
p116
asS'[117.0, 217.0]'
p117
(lp118
S'11'
p119
aS'22.0'
p120
asS'[234.0, 276.0]'
p121
(lp122
S'28'
p123
aS'3.0'
p124
asS'[52.0, 141.0]'
p125
(lp126
S'29'
p127
aS'2.0'
p128
asS'[46.0, 56.0, 159.0]'
p129
(lp130
S'29'
p131
aS'2.0'
p132
asS'[72.0, 73.0, 229.0]'
p133
(lp134
S'29'
p135
aS'2.0'
p136
asS'[10.0, 16.0]'
p137
(lp138
S'26'
p139
aS'5.0'
p140
asS'[80.0, 156.0]'
p141
(lp142
S'29'
p143
aS'2.0'
p144
asS'[120.0, 216.0]'
p145
(lp146
S'27'
p147
aS'4.0'
p148
asS'[74.0, 192.0]'
p149
(lp150
S'29'
p151
aS'2.0'
p152
asS'[245.0, 261.0]'
p153
(lp154
S'11'
p155
aS'22.0'
p156
asS'[194.0, 219.0]'
p157
(lp158
S'21'
p159
aS'10.0'
p160
asS'[136.0]'
p161
(lp162
S'17'
p163
aS'14.0'
p164
asS'[52.0, 128.0]'
p165
(lp166
S'27'
p167
aS'4.0'
p168
asS'[76.0, 170.0]'
p169
(lp170
S'26'
p171
aS'5.0'
p172
asS'[197.0, 273.0]'
p173
(lp174
S'20'
p175
aS'11.0'
p176
asS'[74.0, 219.0, 276.0]'
p177
(lp178
S'20'
p179
aS'11.0'
p180
asS'[178.0, 229.0]'
p181
(lp182
S'1'
p183
aS'61.0'
p184
asS'[80.0, 145.0, 192.0]'
p185
(lp186
S'28'
p187
aS'3.0'
p188
asS'[27.0, 32.0]'
p189
(lp190
S'29'
p191
aS'2.0'
p192
asS'[129.0, 306.0]'
p193
(lp194
S'5'
p195
aS'29.0'
p196
asS'[178.0, 237.0]'
p197
(lp198
S'28'
p199
aS'3.0'
p200
asS'[213.0]'
p201
(lp202
S'26'
p203
aS'5.0'
p204
asS'[255.0, 305.0]'
p205
(lp206
S'28'
p207
aS'3.0'
p208
asS'[37.0, 78.0]'
p209
(lp210
S'6'
p211
aS'28.0'
p212
asS'[193.0, 220.0]'
p213
(lp214
S'27'
p215
aS'4.0'
p216
asS'[78.0, 146.0, 150.0]'
p217
(lp218
S'29'
p219
aS'2.0'
p220
asS'[115.0, 123.0, 158.0]'
p221
(lp222
S'29'
p223
aS'2.0'
p224
asS'[72.0, 76.0, 254.0]'
p225
(lp226
S'28'
p227
aS'3.0'
p228
asS'[189.0, 260.0]'
p229
(lp230
S'22'
p231
aS'9.0'
p232
asS'[48.0, 74.0]'
p233
(lp234
S'28'
p235
aS'3.0'
p236
asS'[270.0, 278.0]'
p237
(lp238
S'22'
p239
aS'9.0'
p240
asS'[71.0, 74.0]'
p241
(lp242
S'27'
p243
aS'4.0'
p244
asS'[78.0, 253.0]'
p245
(lp246
S'28'
p247
aS'3.0'
p248
asS'[78.0, 227.0, 235.0]'
p249
(lp250
S'29'
p251
aS'2.0'
p252
asS'[247.0, 266.0]'
p253
(lp254
S'29'
p255
aS'2.0'
p256
asS'[79.0, 193.0]'
p257
(lp258
S'29'
p259
aS'2.0'
p260
asS'[72.0, 186.0, 187.0]'
p261
(lp262
S'29'
p263
aS'2.0'
p264
asS'[77.0, 142.0]'
p265
(lp266
S'22'
p267
aS'9.0'
p268
asS'[52.0, 95.0, 141.0]'
p269
(lp270
S'29'
p271
aS'2.0'
p272
asS'[71.0, 74.0, 185.0]'
p273
(lp274
S'29'
p275
aS'2.0'
p276
asS'[55.0, 57.0]'
p277
(lp278
S'8'
p279
aS'25.0'
p280
asS'[190.0]'
p281
(lp282
S'22'
p283
aS'9.0'
p284
asS'[198.0, 260.0]'
p285
(lp286
S'28'
p287
aS'3.0'
p288
asS'[71.0, 186.0]'
p289
(lp290
S'13'
p291
aS'18.0'
p292
asS'[72.0, 207.0]'
p293
(lp294
S'28'
p295
aS'3.0'
p296
asS'[82.0, 218.0]'
p297
(lp298
S'28'
p299
aS'3.0'
p300
asS'[143.0, 144.0, 159.0]'
p301
(lp302
S'28'
p303
aS'3.0'
p304
asS'[89.0, 97.0, 99.0]'
p305
(lp306
S'29'
p307
aS'2.0'
p308
asS'[233.0, 305.0]'
p309
(lp310
S'27'
p311
aS'4.0'
p312
asS'[123.0, 184.0]'
p313
(lp314
S'29'
p315
aS'2.0'
p316
asS'[198.0, 244.0]'
p317
(lp318
S'28'
p319
aS'3.0'
p320
asS'[278.0, 305.0]'
p321
(lp322
S'26'
p323
aS'5.0'
p324
asS'[56.0, 158.0]'
p325
(lp326
S'29'
p327
aS'2.0'
p328
asS'[156.0, 192.0]'
p329
(lp330
S'27'
p331
aS'4.0'
p332
asS'[212.0]'
p333
(lp334
S'24'
p335
aS'7.0'
p336
asS'[115.0, 200.0]'
p337
(lp338
S'24'
p339
aS'7.0'
p340
asS'[76.0, 78.0, 149.0]'
p341
(lp342
S'27'
p343
aS'4.0'
p344
asS'[40.0, 160.0]'
p345
(lp346
S'28'
p347
aS'3.0'
p348
asS'[76.0, 150.0]'
p349
(lp350
S'22'
p351
aS'9.0'
p352
asS'[75.0, 251.0]'
p353
(lp354
S'23'
p355
aS'8.0'
p356
asS'[77.0, 146.0]'
p357
(lp358
S'19'
p359
aS'12.0'
p360
asS'[230.0]'
p361
(lp362
S'27'
p363
aS'4.0'
p364
asS'[81.0, 111.0]'
p365
(lp366
S'26'
p367
aS'5.0'
p368
asS'[56.0]'
p369
(lp370
S'23'
p371
aS'8.0'
p372
asS'[188.0]'
p373
(lp374
g195
aS'29.0'
p375
asS'[198.0, 216.0]'
p376
(lp377
S'29'
p378
aS'2.0'
p379
asS'[73.0, 76.0, 145.0]'
p380
(lp381
S'28'
p382
aS'3.0'
p383
asS'[95.0, 116.0, 127.0]'
p384
(lp385
S'28'
p386
aS'3.0'
p387
asS'[124.0, 200.0]'
p388
(lp389
S'27'
p390
aS'4.0'
p391
asS'[15.0, 27.0]'
p392
(lp393
S'28'
p394
aS'3.0'
p395
asS'[90.0, 107.0, 122.0]'
p396
(lp397
S'29'
p398
aS'2.0'
p399
asS'[178.0, 268.0]'
p400
(lp401
S'16'
p402
aS'15.0'
p403
asS'[74.0, 79.0, 96.0]'
p404
(lp405
S'29'
p406
aS'2.0'
p407
asS'[111.0, 137.0]'
p408
(lp409
S'15'
p410
aS'16.0'
p411
asS'[76.0, 254.0, 255.0]'
p412
(lp413
S'29'
p414
aS'2.0'
p415
asS'[203.0, 217.0, 218.0]'
p416
(lp417
S'29'
p418
aS'2.0'
p419
asS'[112.0, 157.0, 178.0]'
p420
(lp421
S'29'
p422
aS'2.0'
p423
asS'[2.0, 69.0, 77.0]'
p424
(lp425
S'29'
p426
aS'2.0'
p427
asS'[246.0, 262.0]'
p428
(lp429
S'29'
p430
aS'2.0'
p431
asS'[231.0, 279.0]'
p432
(lp433
S'29'
p434
aS'2.0'
p435
asS'[89.0, 97.0]'
p436
(lp437
S'29'
p438
aS'2.0'
p439
asS'[143.0]'
p440
(lp441
S'7'
p442
aS'27.0'
p443
asS'[113.0]'
p444
(lp445
S'21'
p446
aS'10.0'
p447
asS'[8.0, 101.0, 305.0]'
p448
(lp449
S'28'
p450
aS'3.0'
p451
asS'[78.0, 149.0, 217.0]'
p452
(lp453
S'29'
p454
aS'2.0'
p455
asS'[93.0, 98.0]'
p456
(lp457
S'25'
p458
aS'6.0'
p459
asS'[220.0, 273.0]'
p460
(lp461
S'29'
p462
aS'2.0'
p463
asS'[8.0, 90.0, 101.0]'
p464
(lp465
S'25'
p466
aS'6.0'
p467
asS'[218.0, 269.0, 270.0]'
p468
(lp469
S'29'
p470
aS'2.0'
p471
asS'[107.0, 122.0]'
p472
(lp473
S'29'
p474
aS'2.0'
p475
asS'[52.0, 88.0]'
p476
(lp477
S'29'
p478
aS'2.0'
p479
asS'[230.0, 278.0]'
p480
(lp481
S'29'
p482
aS'2.0'
p483
asS'[72.0, 73.0, 76.0, 217.0]'
p484
(lp485
S'28'
p486
aS'3.0'
p487
asS'[71.0, 103.0]'
p488
(lp489
S'29'
p490
aS'2.0'
p491
asS'[151.0, 276.0]'
p492
(lp493
S'29'
p494
aS'2.0'
p495
asS'[153.0, 168.0]'
p496
(lp497
S'27'
p498
aS'4.0'
p499
asS'[56.0, 86.0, 119.0]'
p500
(lp501
S'29'
p502
aS'2.0'
p503
asS'[8.0, 32.0]'
p504
(lp505
S'28'
p506
aS'3.0'
p507
asS'[128.0, 214.0]'
p508
(lp509
S'16'
p510
aS'15.0'
p511
asS'[71.0, 77.0, 240.0]'
p512
(lp513
S'29'
p514
aS'2.0'
p515
asS'[84.0]'
p516
(lp517
S'20'
p518
aS'11.0'
p519
asS'[215.0, 218.0]'
p520
(lp521
S'24'
p522
aS'7.0'
p523
asS'[28.0, 32.0]'
p524
(lp525
S'29'
p526
aS'2.0'
p527
asS'[72.0]'
p528
(lp529
g279
aS'25.0'
p530
asS'[62.0, 74.0, 157.0, 193.0]'
p531
(lp532
S'29'
p533
aS'2.0'
p534
asS'[52.0, 89.0, 139.0]'
p535
(lp536
S'27'
p537
aS'4.0'
p538
asS'[268.0, 305.0]'
p539
(lp540
S'29'
p541
aS'2.0'
p542
asS'[76.0, 203.0]'
p543
(lp544
S'27'
p545
aS'4.0'
p546
asS'[74.0, 111.0]'
p547
(lp548
S'24'
p549
aS'7.0'
p550
asS'[229.0]'
p551
(lp552
g183
aS'61.0'
p553
asS'[72.0, 253.0, 254.0]'
p554
(lp555
S'29'
p556
aS'2.0'
p557
asS'[141.0]'
p558
(lp559
S'9'
p560
aS'24.0'
p561
asS'[40.0, 170.0]'
p562
(lp563
S'21'
p564
aS'10.0'
p565
asS'[143.0, 144.0]'
p566
(lp567
S'24'
p568
aS'7.0'
p569
asS'[13.0, 27.0]'
p570
(lp571
S'29'
p572
aS'2.0'
p573
asS'[5.0, 7.0, 40.0]'
p574
(lp575
S'29'
p576
aS'2.0'
p577
asS'[148.0, 178.0]'
p578
(lp579
S'27'
p580
aS'4.0'
p581
asS'[76.0, 91.0]'
p582
(lp583
S'27'
p584
aS'4.0'
p585
asS'[62.0, 74.0, 157.0]'
p586
(lp587
S'29'
p588
aS'2.0'
p589
asS'[45.0, 119.0]'
p590
(lp591
S'28'
p592
aS'3.0'
p593
asS'[89.0, 97.0, 140.0]'
p594
(lp595
S'29'
p596
aS'2.0'
p597
asS'[53.0, 70.0, 92.0]'
p598
(lp599
S'29'
p600
aS'2.0'
p601
asS'[4.0, 132.0]'
p602
(lp603
S'29'
p604
aS'2.0'
p605
asS'[57.0, 63.0, 87.0, 88.0]'
p606
(lp607
S'29'
p608
aS'2.0'
p609
asS'[68.0, 221.0]'
p610
(lp611
S'26'
p612
aS'5.0'
p613
asS'[71.0, 146.0, 217.0]'
p614
(lp615
S'29'
p616
aS'2.0'
p617
asS'[38.0, 77.0, 120.0]'
p618
(lp619
S'28'
p620
aS'3.0'
p621
asS'[174.0, 217.0, 218.0]'
p622
(lp623
S'27'
p624
aS'4.0'
p625
asS'[86.0]'
p626
(lp627
g279
aS'25.0'
p628
asS'[188.0, 222.0]'
p629
(lp630
S'28'
p631
aS'3.0'
p632
asS'[36.0, 41.0]'
p633
(lp634
S'29'
p635
aS'2.0'
p636
asS'[77.0, 199.0]'
p637
(lp638
S'29'
p639
aS'2.0'
p640
asS'[171.0, 174.0]'
p641
(lp642
S'23'
p643
aS'8.0'
p644
asS'[188.0, 195.0]'
p645
(lp646
S'27'
p647
aS'4.0'
p648
asS'[155.0, 216.0]'
p649
(lp650
S'26'
p651
aS'5.0'
p652
asS'[281.0]'
p653
(lp654
S'24'
p655
aS'7.0'
p656
asS'[41.0, 144.0, 174.0]'
p657
(lp658
S'29'
p659
aS'2.0'
p660
asS'[53.0, 60.0]'
p661
(lp662
S'25'
p663
aS'6.0'
p664
asS'[37.0, 74.0]'
p665
(lp666
S'27'
p667
aS'4.0'
p668
asS'[79.0, 82.0]'
p669
(lp670
S'23'
p671
aS'8.0'
p672
asS'[41.0, 120.0]'
p673
(lp674
S'26'
p675
aS'5.0'
p676
asS'[82.0, 157.0]'
p677
(lp678
S'27'
p679
aS'4.0'
p680
asS'[11.0, 29.0]'
p681
(lp682
S'29'
p683
aS'2.0'
p684
asS'[232.0]'
p685
(lp686
S'15'
p687
aS'16.0'
p688
asS'[223.0]'
p689
(lp690
S'20'
p691
aS'11.0'
p692
asS'[93.0, 95.0]'
p693
(lp694
S'27'
p695
aS'4.0'
p696
asS'[243.0, 281.0, 305.0]'
p697
(lp698
S'29'
p699
aS'2.0'
p700
asS'[221.0, 303.0]'
p701
(lp702
S'28'
p703
aS'3.0'
p704
asS'[71.0, 77.0, 227.0]'
p705
(lp706
S'29'
p707
aS'2.0'
p708
asS'[76.0, 78.0, 149.0, 217.0]'
p709
(lp710
S'29'
p711
aS'2.0'
p712
asS'[115.0, 132.0]'
p713
(lp714
S'29'
p715
aS'2.0'
p716
asS'[95.0, 177.0, 305.0]'
p717
(lp718
S'29'
p719
aS'2.0'
p720
asS'[8.0, 41.0, 102.0]'
p721
(lp722
S'29'
p723
aS'2.0'
p724
asS'[38.0, 90.0, 101.0]'
p725
(lp726
S'29'
p727
aS'2.0'
p728
asS'[76.0, 251.0, 252.0]'
p729
(lp730
S'29'
p731
aS'2.0'
p732
asS'[216.0, 226.0]'
p733
(lp734
S'29'
p735
aS'2.0'
p736
asS'[147.0]'
p737
(lp738
g195
aS'29.0'
p739
asS'[265.0, 305.0]'
p740
(lp741
S'29'
p742
aS'2.0'
p743
asS'[97.0, 99.0, 143.0]'
p744
(lp745
S'26'
p746
aS'5.0'
p747
asS'[203.0, 217.0]'
p748
(lp749
S'25'
p750
aS'6.0'
p751
asS'[46.0, 57.0, 90.0]'
p752
(lp753
S'26'
p754
aS'5.0'
p755
asS'[71.0, 81.0, 217.0]'
p756
(lp757
S'28'
p758
aS'3.0'
p759
asS'[62.0, 193.0]'
p760
(lp761
S'29'
p762
aS'2.0'
p763
asS'[150.0, 153.0]'
p764
(lp765
S'28'
p766
aS'3.0'
p767
asS'[227.0]'
p768
(lp769
S'22'
p770
aS'9.0'
p771
asS'[225.0]'
p772
(lp773
S'11'
p774
aS'22.0'
p775
asS'[41.0, 121.0]'
p776
(lp777
S'28'
p778
aS'3.0'
p779
asS'[123.0, 166.0, 305.0]'
p780
(lp781
S'29'
p782
aS'2.0'
p783
asS'[72.0, 78.0, 226.0]'
p784
(lp785
S'29'
p786
aS'2.0'
p787
asS'[51.0, 61.0]'
p788
(lp789
S'27'
p790
aS'4.0'
p791
asS'[175.0, 306.0]'
p792
(lp793
S'16'
p794
aS'15.0'
p795
asS'[107.0, 141.0]'
p796
(lp797
S'28'
p798
aS'3.0'
p799
asS'[79.0, 119.0]'
p800
(lp801
S'29'
p802
aS'2.0'
p803
asS'[221.0]'
p804
(lp805
S'15'
p806
aS'16.0'
p807
asS'[121.0]'
p808
(lp809
S'24'
p810
aS'7.0'
p811
asS'[7.0, 305.0]'
p812
(lp813
S'28'
p814
aS'3.0'
p815
asS'[46.0, 57.0, 114.0]'
p816
(lp817
S'29'
p818
aS'2.0'
p819
asS'[219.0, 305.0]'
p820
(lp821
S'29'
p822
aS'2.0'
p823
asS'[2.0, 71.0, 77.0]'
p824
(lp825
S'29'
p826
aS'2.0'
p827
asS'[198.0, 240.0]'
p828
(lp829
S'27'
p830
aS'4.0'
p831
asS'[90.0, 118.0]'
p832
(lp833
S'26'
p834
aS'5.0'
p835
asS'[71.0, 164.0]'
p836
(lp837
S'29'
p838
aS'2.0'
p839
asS'[73.0, 75.0, 229.0]'
p840
(lp841
S'29'
p842
aS'2.0'
p843
asS'[169.0, 226.0, 234.0]'
p844
(lp845
S'29'
p846
aS'2.0'
p847
asS'[88.0, 114.0]'
p848
(lp849
S'29'
p850
aS'2.0'
p851
asS'[116.0, 180.0]'
p852
(lp853
S'25'
p854
aS'6.0'
p855
asS'[91.0, 158.0]'
p856
(lp857
S'29'
p858
aS'2.0'
p859
asS'[62.0]'
p860
(lp861
g279
aS'25.0'
p862
asS'[72.0, 229.0]'
p863
(lp864
S'29'
p865
aS'2.0'
p866
asS'[233.0, 281.0]'
p867
(lp868
S'27'
p869
aS'4.0'
p870
asS'[123.0]'
p871
(lp872
g195
aS'29.0'
p873
asS'[79.0, 80.0]'
p874
(lp875
S'24'
p876
aS'7.0'
p877
asS'[152.0, 277.0]'
p878
(lp879
S'29'
p880
aS'2.0'
p881
asS'[103.0, 136.0]'
p882
(lp883
S'29'
p884
aS'2.0'
p885
asS'[3.0, 9.0]'
p886
(lp887
S'11'
p888
aS'22.0'
p889
asS'[101.0, 160.0]'
p890
(lp891
S'29'
p892
aS'2.0'
p893
asS'[240.0, 246.0]'
p894
(lp895
g195
aS'29.0'
p896
asS'[82.0, 173.0]'
p897
(lp898
S'29'
p899
aS'2.0'
p900
asS'[95.0, 305.0]'
p901
(lp902
g195
aS'29.0'
p903
asS'[76.0, 80.0, 192.0]'
p904
(lp905
S'28'
p906
aS'3.0'
p907
asS'[174.0, 217.0]'
p908
(lp909
S'26'
p910
aS'5.0'
p911
asS'[5.0, 40.0]'
p912
(lp913
S'29'
p914
aS'2.0'
p915
asS'[195.0, 216.0, 223.0]'
p916
(lp917
S'29'
p918
aS'2.0'
p919
asS'[195.0, 209.0]'
p920
(lp921
S'28'
p922
aS'3.0'
p923
asS'[142.0, 144.0]'
p924
(lp925
S'22'
p926
aS'9.0'
p927
asS'[75.0, 77.0]'
p928
(lp929
S'28'
p930
aS'3.0'
p931
asS'[249.0, 258.0, 305.0]'
p932
(lp933
S'29'
p934
aS'2.0'
p935
asS'[178.0, 269.0, 270.0, 305.0]'
p936
(lp937
S'29'
p938
aS'2.0'
p939
asS'[79.0, 136.0]'
p940
(lp941
S'29'
p942
aS'2.0'
p943
asS'[177.0, 229.0]'
p944
(lp945
S'28'
p946
aS'3.0'
p947
asS'[90.0, 97.0]'
p948
(lp949
S'19'
p950
aS'12.0'
p951
asS'[2.0, 71.0, 145.0]'
p952
(lp953
S'29'
p954
aS'2.0'
p955
asS'[61.0, 73.0, 76.0]'
p956
(lp957
S'28'
p958
aS'3.0'
p959
asS'[125.0]'
p960
(lp961
S'25'
p962
aS'6.0'
p963
asS'[46.0, 114.0]'
p964
(lp965
S'27'
p966
aS'4.0'
p967
asS'[161.0, 305.0]'
p968
(lp969
S'29'
p970
aS'2.0'
p971
asS'[102.0, 305.0]'
p972
(lp973
S'28'
p974
aS'3.0'
p975
asS'[150.0, 153.0, 168.0]'
p976
(lp977
S'28'
p978
aS'3.0'
p979
asS'[95.0, 116.0]'
p980
(lp981
S'28'
p982
aS'3.0'
p983
asS'[56.0, 119.0, 159.0]'
p984
(lp985
S'29'
p986
aS'2.0'
p987
asS'[173.0, 303.0]'
p988
(lp989
S'28'
p990
aS'3.0'
p991
asS'[98.0, 102.0, 121.0]'
p992
(lp993
S'29'
p994
aS'2.0'
p995
asS'[56.0, 136.0, 198.0]'
p996
(lp997
S'27'
p998
aS'4.0'
p999
asS'[55.0, 57.0, 63.0]'
p1000
(lp1001
S'29'
p1002
aS'2.0'
p1003
asS'[249.0]'
p1004
(lp1005
S'29'
p1006
aS'2.0'
p1007
asS'[112.0, 148.0, 178.0]'
p1008
(lp1009
S'27'
p1010
aS'4.0'
p1011
asS'[147.0, 149.0, 205.0]'
p1012
(lp1013
S'29'
p1014
aS'2.0'
p1015
asS'[109.0, 177.0]'
p1016
(lp1017
S'29'
p1018
aS'2.0'
p1019
asS'[55.0, 78.0]'
p1020
(lp1021
S'10'
p1022
aS'23.0'
p1023
asS'[59.0, 83.0]'
p1024
(lp1025
S'27'
p1026
aS'4.0'
p1027
asS'[169.0]'
p1028
(lp1029
S'22'
p1030
aS'9.0'
p1031
asS'[91.0, 158.0, 200.0]'
p1032
(lp1033
S'29'
p1034
aS'2.0'
p1035
asS'[117.0, 234.0, 305.0]'
p1036
(lp1037
S'27'
p1038
aS'4.0'
p1039
asS'[160.0, 220.0]'
p1040
(lp1041
S'29'
p1042
aS'2.0'
p1043
asS'[178.0, 221.0, 270.0]'
p1044
(lp1045
S'29'
p1046
aS'2.0'
p1047
asS'[106.0, 143.0]'
p1048
(lp1049
S'29'
p1050
aS'2.0'
p1051
asS'[38.0, 90.0]'
p1052
(lp1053
S'29'
p1054
aS'2.0'
p1055
asS'[233.0, 243.0, 305.0]'
p1056
(lp1057
S'29'
p1058
aS'2.0'
p1059
asS'[178.0, 269.0]'
p1060
(lp1061
S'29'
p1062
aS'2.0'
p1063
asS'[79.0, 96.0]'
p1064
(lp1065
S'29'
p1066
aS'2.0'
p1067
asS'[72.0, 195.0]'
p1068
(lp1069
S'27'
p1070
aS'4.0'
p1071
asS'[62.0, 72.0, 78.0, 161.0]'
p1072
(lp1073
S'29'
p1074
aS'2.0'
p1075
asS'[78.0, 216.0, 226.0]'
p1076
(lp1077
S'29'
p1078
aS'2.0'
p1079
asS'[3.0, 31.0]'
p1080
(lp1081
S'27'
p1082
aS'4.0'
p1083
asS'[44.0, 90.0]'
p1084
(lp1085
S'27'
p1086
aS'4.0'
p1087
asS'[78.0, 227.0]'
p1088
(lp1089
S'29'
p1090
aS'2.0'
p1091
asS'[38.0, 101.0]'
p1092
(lp1093
S'27'
p1094
aS'4.0'
p1095
asS'[249.0, 250.0]'
p1096
(lp1097
S'29'
p1098
aS'2.0'
p1099
asS'[78.0, 117.0, 164.0]'
p1100
(lp1101
S'29'
p1102
aS'2.0'
p1103
asS'[73.0, 193.0, 216.0]'
p1104
(lp1105
S'28'
p1106
aS'3.0'
p1107
asS'[232.0, 280.0]'
p1108
(lp1109
S'29'
p1110
aS'2.0'
p1111
asS'[73.0, 117.0, 192.0]'
p1112
(lp1113
S'29'
p1114
aS'2.0'
p1115
asS'[178.0, 254.0]'
p1116
(lp1117
S'28'
p1118
aS'3.0'
p1119
asS'[72.0, 197.0]'
p1120
(lp1121
S'18'
p1122
aS'13.0'
p1123
asS'[77.0, 253.0]'
p1124
(lp1125
S'25'
p1126
aS'6.0'
p1127
asS'[71.0, 174.0, 216.0]'
p1128
(lp1129
S'29'
p1130
aS'2.0'
p1131
asS'[40.0, 160.0, 170.0]'
p1132
(lp1133
S'28'
p1134
aS'3.0'
p1135
asS'[227.0, 305.0]'
p1136
(lp1137
S'28'
p1138
aS'3.0'
p1139
asS'[204.0, 217.0]'
p1140
(lp1141
g195
aS'29.0'
p1142
asS'[72.0, 76.0, 217.0]'
p1143
(lp1144
S'28'
p1145
aS'3.0'
p1146
asS'[62.0, 161.0]'
p1147
(lp1148
S'29'
p1149
aS'2.0'
p1150
asS'[145.0]'
p1151
(lp1152
S'11'
p1153
aS'22.0'
p1154
asS'[69.0, 119.0]'
p1155
(lp1156
S'23'
p1157
aS'8.0'
p1158
asS'[73.0, 74.0, 193.0]'
p1159
(lp1160
S'29'
p1161
aS'2.0'
p1162
asS'[72.0, 226.0]'
p1163
(lp1164
S'29'
p1165
aS'2.0'
p1166
asS'[89.0, 198.0]'
p1167
(lp1168
S'27'
p1169
aS'4.0'
p1170
asS'[73.0, 76.0, 200.0]'
p1171
(lp1172
S'28'
p1173
aS'3.0'
p1174
asS'[198.0]'
p1175
(lp1176
S'11'
p1177
aS'22.0'
p1178
asS'[15.0, 26.0]'
p1179
(lp1180
S'29'
p1181
aS'2.0'
p1182
asS'[33.0, 40.0, 143.0]'
p1183
(lp1184
S'29'
p1185
aS'2.0'
p1186
asS'[46.0, 119.0]'
p1187
(lp1188
S'16'
p1189
aS'15.0'
p1190
asS'[229.0, 278.0]'
p1191
(lp1192
S'29'
p1193
aS'2.0'
p1194
asS'[191.0, 305.0]'
p1195
(lp1196
S'2'
p1197
aS'44.0'
p1198
asS'[40.0, 94.0]'
p1199
(lp1200
S'28'
p1201
aS'3.0'
p1202
asS'[29.0, 122.0]'
p1203
(lp1204
S'25'
p1205
aS'6.0'
p1206
asS'[204.0, 215.0]'
p1207
(lp1208
S'28'
p1209
aS'3.0'
p1210
asS'[17.0]'
p1211
(lp1212
g195
aS'29.0'
p1213
asS'[170.0]'
p1214
(lp1215
S'21'
p1216
aS'10.0'
p1217
asS'[162.0, 166.0]'
p1218
(lp1219
S'29'
p1220
aS'2.0'
p1221
asS'[2.0, 69.0, 71.0, 77.0]'
p1222
(lp1223
S'29'
p1224
aS'2.0'
p1225
asS'[247.0, 270.0]'
p1226
(lp1227
S'29'
p1228
aS'2.0'
p1229
asS'[186.0]'
p1230
(lp1231
g195
aS'29.0'
p1232
asS'[76.0, 228.0]'
p1233
(lp1234
S'23'
p1235
aS'8.0'
p1236
asS'[218.0]'
p1237
(lp1238
S'16'
p1239
aS'15.0'
p1240
asS'[241.0, 247.0]'
p1241
(lp1242
S'29'
p1243
aS'2.0'
p1244
asS'[151.0, 168.0]'
p1245
(lp1246
S'24'
p1247
aS'7.0'
p1248
asS'[14.0, 26.0]'
p1249
(lp1250
S'27'
p1251
aS'4.0'
p1252
asS'[149.0, 193.0]'
p1253
(lp1254
S'23'
p1255
aS'8.0'
p1256
asS'[74.0, 141.0]'
p1257
(lp1258
S'22'
p1259
aS'9.0'
p1260
asS'[81.0, 164.0]'
p1261
(lp1262
S'25'
p1263
aS'6.0'
p1264
asS'[99.0, 123.0, 305.0]'
p1265
(lp1266
S'29'
p1267
aS'2.0'
p1268
asS'[82.0]'
p1269
(lp1270
S'16'
p1271
aS'15.0'
p1272
asS'[76.0, 205.0]'
p1273
(lp1274
S'24'
p1275
aS'7.0'
p1276
asS'[77.0, 252.0]'
p1277
(lp1278
S'29'
p1279
aS'2.0'
p1280
asS'[71.0, 81.0, 164.0]'
p1281
(lp1282
S'29'
p1283
aS'2.0'
p1284
asS'[230.0, 241.0]'
p1285
(lp1286
S'29'
p1287
aS'2.0'
p1288
asS'[67.0, 177.0]'
p1289
(lp1290
S'29'
p1291
aS'2.0'
p1292
asS'[270.0, 271.0]'
p1293
(lp1294
g211
aS'28.0'
p1295
asS'[103.0, 136.0, 201.0]'
p1296
(lp1297
S'29'
p1298
aS'2.0'
p1299
asS'[153.0, 270.0]'
p1300
(lp1301
S'29'
p1302
aS'2.0'
p1303
asS'[7.0, 101.0]'
p1304
(lp1305
S'29'
p1306
aS'2.0'
p1307
asS'[71.0, 228.0, 240.0]'
p1308
(lp1309
S'28'
p1310
aS'3.0'
p1311
asS'[77.0, 170.0]'
p1312
(lp1313
S'25'
p1314
aS'6.0'
p1315
asS'[62.0, 76.0, 78.0]'
p1316
(lp1317
S'28'
p1318
aS'3.0'
p1319
asS'[15.0, 118.0]'
p1320
(lp1321
S'29'
p1322
aS'2.0'
p1323
asS'[34.0, 135.0]'
p1324
(lp1325
S'27'
p1326
aS'4.0'
p1327
asS'[41.0, 102.0, 121.0]'
p1328
(lp1329
S'29'
p1330
aS'2.0'
p1331
asS'[159.0, 199.0]'
p1332
(lp1333
S'28'
p1334
aS'3.0'
p1335
asS'[68.0, 110.0]'
p1336
(lp1337
S'26'
p1338
aS'5.0'
p1339
asS'[171.0, 217.0]'
p1340
(lp1341
S'28'
p1342
aS'3.0'
p1343
asS'[154.0, 217.0]'
p1344
(lp1345
S'27'
p1346
aS'4.0'
p1347
asS'[16.0, 32.0]'
p1348
(lp1349
S'29'
p1350
aS'2.0'
p1351
asS'[95.0, 166.0, 305.0]'
p1352
(lp1353
S'29'
p1354
aS'2.0'
p1355
asS'[77.0, 227.0, 235.0]'
p1356
(lp1357
S'29'
p1358
aS'2.0'
p1359
asS'[71.0, 238.0]'
p1360
(lp1361
S'25'
p1362
aS'6.0'
p1363
asS'[33.0, 73.0]'
p1364
(lp1365
S'29'
p1366
aS'2.0'
p1367
asS'[164.0]'
p1368
(lp1369
S'19'
p1370
aS'12.0'
p1371
asS'[83.0]'
p1372
(lp1373
S'25'
p1374
aS'6.0'
p1375
asS'[178.0, 229.0, 305.0]'
p1376
(lp1377
S'29'
p1378
aS'2.0'
p1379
asS'[85.0, 177.0]'
p1380
(lp1381
S'29'
p1382
aS'2.0'
p1383
asS'[250.0, 275.0]'
p1384
(lp1385
S'28'
p1386
aS'3.0'
p1387
asS'[146.0]'
p1388
(lp1389
S'19'
p1390
aS'12.0'
p1391
asS'[127.0]'
p1392
(lp1393
S'23'
p1394
aS'8.0'
p1395
asS'[73.0, 185.0]'
p1396
(lp1397
S'23'
p1398
aS'8.0'
p1399
asS'[48.0, 76.0]'
p1400
(lp1401
S'26'
p1402
aS'5.0'
p1403
asS'[253.0, 254.0]'
p1404
(lp1405
S'29'
p1406
aS'2.0'
p1407
asS'[78.0, 155.0, 198.0, 216.0]'
p1408
(lp1409
S'29'
p1410
aS'2.0'
p1411
asS'[73.0, 75.0, 76.0, 200.0]'
p1412
(lp1413
S'29'
p1414
aS'2.0'
p1415
asS'[195.0, 196.0]'
p1416
(lp1417
S'29'
p1418
aS'2.0'
p1419
asS'[262.0, 305.0]'
p1420
(lp1421
S'28'
p1422
aS'3.0'
p1423
asS'[77.0, 158.0, 199.0]'
p1424
(lp1425
S'29'
p1426
aS'2.0'
p1427
asS'[76.0, 224.0]'
p1428
(lp1429
S'28'
p1430
aS'3.0'
p1431
asS'[225.0, 305.0]'
p1432
(lp1433
S'11'
p1434
aS'22.0'
p1435
asS'[3.0, 170.0]'
p1436
(lp1437
S'26'
p1438
aS'5.0'
p1439
asS'[99.0, 160.0]'
p1440
(lp1441
S'14'
p1442
aS'17.0'
p1443
asS'[81.0]'
p1444
(lp1445
S'21'
p1446
aS'10.0'
p1447
asS'[64.0]'
p1448
(lp1449
S'28'
p1450
aS'3.0'
p1451
asS'[64.0, 110.0]'
p1452
(lp1453
S'28'
p1454
aS'3.0'
p1455
asS'[72.0, 242.0]'
p1456
(lp1457
S'22'
p1458
aS'9.0'
p1459
asS'[71.0, 77.0, 252.0, 253.0]'
p1460
(lp1461
S'29'
p1462
aS'2.0'
p1463
asS'[76.0, 111.0]'
p1464
(lp1465
S'26'
p1466
aS'5.0'
p1467
asS'[153.0, 268.0]'
p1468
(lp1469
S'29'
p1470
aS'2.0'
p1471
asS'[76.0, 208.0]'
p1472
(lp1473
S'22'
p1474
aS'9.0'
p1475
asS'[89.0]'
p1476
(lp1477
g195
aS'29.0'
p1478
asS'[238.0, 305.0]'
p1479
(lp1480
S'28'
p1481
aS'3.0'
p1482
asS'[12.0, 30.0]'
p1483
(lp1484
S'29'
p1485
aS'2.0'
p1486
asS'[3.0, 21.0, 47.0]'
p1487
(lp1488
S'29'
p1489
aS'2.0'
p1490
asS'[146.0, 151.0]'
p1491
(lp1492
S'29'
p1493
aS'2.0'
p1494
asS'[74.0, 79.0, 96.0, 193.0]'
p1495
(lp1496
S'29'
p1497
aS'2.0'
p1498
asS'[90.0, 114.0]'
p1499
(lp1500
S'24'
p1501
aS'7.0'
p1502
asS'[148.0, 221.0]'
p1503
(lp1504
S'28'
p1505
aS'3.0'
p1506
asS'[90.0, 97.0, 101.0]'
p1507
(lp1508
S'25'
p1509
aS'6.0'
p1510
asS'[76.0, 186.0, 188.0]'
p1511
(lp1512
S'28'
p1513
aS'3.0'
p1514
asS'[45.0]'
p1515
(lp1516
S'25'
p1517
aS'6.0'
p1518
asS'[78.0, 218.0]'
p1519
(lp1520
S'27'
p1521
aS'4.0'
p1522
asS'[181.0, 217.0]'
p1523
(lp1524
S'26'
p1525
aS'5.0'
p1526
asS'[16.0, 44.0]'
p1527
(lp1528
S'29'
p1529
aS'2.0'
p1530
asS'[150.0, 168.0]'
p1531
(lp1532
g279
aS'25.0'
p1533
asS'[41.0, 174.0]'
p1534
(lp1535
S'29'
p1536
aS'2.0'
p1537
asS'[52.0, 57.0, 88.0]'
p1538
(lp1539
S'29'
p1540
aS'2.0'
p1541
asS'[40.0, 120.0]'
p1542
(lp1543
S'25'
p1544
aS'6.0'
p1545
asS'[144.0]'
p1546
(lp1547
g279
aS'25.0'
p1548
asS'[203.0, 223.0]'
p1549
(lp1550
S'29'
p1551
aS'2.0'
p1552
asS'[20.0, 24.0]'
p1553
(lp1554
S'27'
p1555
aS'4.0'
p1556
asS'[132.0, 306.0]'
p1557
(lp1558
S'25'
p1559
aS'6.0'
p1560
asS'[25.0]'
p1561
(lp1562
S'18'
p1563
aS'13.0'
p1564
asS'[136.0, 198.0]'
p1565
(lp1566
S'22'
p1567
aS'9.0'
p1568
asS'[71.0, 74.0, 192.0]'
p1569
(lp1570
S'29'
p1571
aS'2.0'
p1572
asS'[272.0, 305.0]'
p1573
(lp1574
S'27'
p1575
aS'4.0'
p1576
asS'[33.0]'
p1577
(lp1578
S'16'
p1579
aS'15.0'
p1580
asS'[74.0, 237.0]'
p1581
(lp1582
S'26'
p1583
aS'5.0'
p1584
asS'[52.0, 57.0, 87.0]'
p1585
(lp1586
S'29'
p1587
aS'2.0'
p1588
asS'[75.0, 77.0, 162.0]'
p1589
(lp1590
S'29'
p1591
aS'2.0'
p1592
asS'[101.0, 121.0]'
p1593
(lp1594
S'29'
p1595
aS'2.0'
p1596
asS'[73.0, 76.0, 216.0]'
p1597
(lp1598
S'28'
p1599
aS'3.0'
p1600
asS'[52.0, 62.0]'
p1601
(lp1602
S'29'
p1603
aS'2.0'
p1604
asS'[163.0, 177.0]'
p1605
(lp1606
S'27'
p1607
aS'4.0'
p1608
asS'[73.0, 75.0]'
p1609
(lp1610
S'23'
p1611
aS'8.0'
p1612
asS'[257.0]'
p1613
(lp1614
S'27'
p1615
aS'4.0'
p1616
asS'[180.0, 198.0, 212.0]'
p1617
(lp1618
S'29'
p1619
aS'2.0'
p1620
asS'[248.0, 259.0]'
p1621
(lp1622
S'26'
p1623
aS'5.0'
p1624
asS'[43.0, 73.0]'
p1625
(lp1626
S'24'
p1627
aS'7.0'
p1628
asS'[75.0, 76.0, 111.0]'
p1629
(lp1630
S'29'
p1631
aS'2.0'
p1632
asS'[4.0, 10.0, 22.0]'
p1633
(lp1634
S'29'
p1635
aS'2.0'
p1636
asS'[40.0]'
p1637
(lp1638
S'21'
p1639
aS'10.0'
p1640
asS'[251.0]'
p1641
(lp1642
S'23'
p1643
aS'8.0'
p1644
asS'[76.0, 208.0, 216.0]'
p1645
(lp1646
S'28'
p1647
aS'3.0'
p1648
asS'[21.0, 118.0]'
p1649
(lp1650
S'28'
p1651
aS'3.0'
p1652
asS'[12.0, 24.0]'
p1653
(lp1654
S'28'
p1655
aS'3.0'
p1656
asS'[195.0, 207.0]'
p1657
(lp1658
S'28'
p1659
aS'3.0'
p1660
asS'[1.0, 51.0]'
p1661
(lp1662
S'26'
p1663
aS'5.0'
p1664
asS'[148.0]'
p1665
(lp1666
S'19'
p1667
aS'12.0'
p1668
asS'[27.0]'
p1669
(lp1670
S'27'
p1671
aS'4.0'
p1672
asS'[137.0, 160.0]'
p1673
(lp1674
S'26'
p1675
aS'5.0'
p1676
asS'[17.0, 99.0]'
p1677
(lp1678
S'29'
p1679
aS'2.0'
p1680
asS'[52.0, 60.0]'
p1681
(lp1682
S'29'
p1683
aS'2.0'
p1684
asS'[273.0]'
p1685
(lp1686
S'20'
p1687
aS'11.0'
p1688
asS'[74.0, 222.0]'
p1689
(lp1690
S'22'
p1691
aS'9.0'
p1692
asS'[72.0, 76.0, 252.0]'
p1693
(lp1694
S'28'
p1695
aS'3.0'
p1696
asS'[169.0, 251.0]'
p1697
(lp1698
S'29'
p1699
aS'2.0'
p1700
asS'[73.0, 117.0, 193.0]'
p1701
(lp1702
S'27'
p1703
aS'4.0'
p1704
asS'[78.0, 115.0, 198.0]'
p1705
(lp1706
S'29'
p1707
aS'2.0'
p1708
asS'[183.0, 222.0]'
p1709
(lp1710
S'29'
p1711
aS'2.0'
p1712
asS'[187.0]'
p1713
(lp1714
S'17'
p1715
aS'14.0'
p1716
asS'[46.0, 193.0]'
p1717
(lp1718
S'25'
p1719
aS'6.0'
p1720
asS'[78.0, 146.0, 217.0]'
p1721
(lp1722
S'29'
p1723
aS'2.0'
p1724
asS'[71.0, 95.0, 103.0]'
p1725
(lp1726
S'29'
p1727
aS'2.0'
p1728
asS'[237.0, 279.0]'
p1729
(lp1730
S'29'
p1731
aS'2.0'
p1732
asS'[101.0, 161.0, 305.0]'
p1733
(lp1734
S'29'
p1735
aS'2.0'
p1736
asS'[147.0, 149.0]'
p1737
(lp1738
S'29'
p1739
aS'2.0'
p1740
asS'[270.0]'
p1741
(lp1742
g211
aS'28.0'
p1743
asS'[117.0, 147.0]'
p1744
(lp1745
S'24'
p1746
aS'7.0'
p1747
asS'[255.0]'
p1748
(lp1749
S'23'
p1750
aS'8.0'
p1751
asS'[48.0, 62.0]'
p1752
(lp1753
S'26'
p1754
aS'5.0'
p1755
asS'[87.0, 113.0]'
p1756
(lp1757
S'27'
p1758
aS'4.0'
p1759
asS'[71.0, 73.0, 192.0]'
p1760
(lp1761
S'28'
p1762
aS'3.0'
p1763
asS'[8.0, 77.0]'
p1764
(lp1765
S'29'
p1766
aS'2.0'
p1767
asS'[147.0, 205.0]'
p1768
(lp1769
S'15'
p1770
aS'16.0'
p1771
asS'[143.0, 156.0]'
p1772
(lp1773
S'25'
p1774
aS'6.0'
p1775
asS'[81.0, 82.0]'
p1776
(lp1777
S'27'
p1778
aS'4.0'
p1779
asS'[79.0, 168.0]'
p1780
(lp1781
S'29'
p1782
aS'2.0'
p1783
asS'[89.0, 118.0]'
p1784
(lp1785
S'26'
p1786
aS'5.0'
p1787
asS'[100.0, 123.0]'
p1788
(lp1789
S'26'
p1790
aS'5.0'
p1791
asS'[76.0, 217.0, 241.0]'
p1792
(lp1793
S'29'
p1794
aS'2.0'
p1795
asS'[2.0, 54.0]'
p1796
(lp1797
S'27'
p1798
aS'4.0'
p1799
asS'[253.0]'
p1800
(lp1801
S'11'
p1802
aS'22.0'
p1803
asS'[75.0, 162.0]'
p1804
(lp1805
S'29'
p1806
aS'2.0'
p1807
asS'[71.0, 174.0]'
p1808
(lp1809
S'26'
p1810
aS'5.0'
p1811
asS'[72.0, 240.0]'
p1812
(lp1813
S'29'
p1814
aS'2.0'
p1815
asS'[184.0]'
p1816
(lp1817
S'27'
p1818
aS'4.0'
p1819
asS'[66.0, 221.0]'
p1820
(lp1821
S'25'
p1822
aS'6.0'
p1823
asS'[2.0, 91.0]'
p1824
(lp1825
S'17'
p1826
aS'14.0'
p1827
asS'[71.0, 74.0, 216.0]'
p1828
(lp1829
S'29'
p1830
aS'2.0'
p1831
asS'[82.0, 220.0]'
p1832
(lp1833
S'29'
p1834
aS'2.0'
p1835
asS'[108.0, 120.0]'
p1836
(lp1837
S'27'
p1838
aS'4.0'
p1839
asS'[71.0, 77.0, 217.0]'
p1840
(lp1841
S'27'
p1842
aS'4.0'
p1843
asS'[71.0, 212.0]'
p1844
(lp1845
S'27'
p1846
aS'4.0'
p1847
asS'[46.0, 90.0, 114.0]'
p1848
(lp1849
S'27'
p1850
aS'4.0'
p1851
asS'[7.0, 9.0]'
p1852
(lp1853
S'13'
p1854
aS'18.0'
p1855
asS'[73.0, 76.0, 192.0]'
p1856
(lp1857
S'28'
p1858
aS'3.0'
p1859
asS'[177.0, 220.0]'
p1860
(lp1861
S'28'
p1862
aS'3.0'
p1863
asS'[51.0, 61.0, 67.0]'
p1864
(lp1865
S'28'
p1866
aS'3.0'
p1867
asS'[73.0, 217.0]'
p1868
(lp1869
S'28'
p1870
aS'3.0'
p1871
asS'[51.0, 123.0]'
p1872
(lp1873
g195
aS'29.0'
p1874
asS'[153.0, 220.0]'
p1875
(lp1876
S'26'
p1877
aS'5.0'
p1878
asS'[152.0, 217.0]'
p1879
(lp1880
S'28'
p1881
aS'3.0'
p1882
asS'[72.0, 188.0, 195.0]'
p1883
(lp1884
S'29'
p1885
aS'2.0'
p1886
asS'[72.0, 73.0, 76.0, 228.0]'
p1887
(lp1888
S'29'
p1889
aS'2.0'
p1890
asS'[189.0, 243.0]'
p1891
(lp1892
S'21'
p1893
aS'10.0'
p1894
asS'[199.0, 271.0]'
p1895
(lp1896
S'24'
p1897
aS'7.0'
p1898
asS'[195.0, 223.0]'
p1899
(lp1900
S'29'
p1901
aS'2.0'
p1902
asS'[74.0, 193.0]'
p1903
(lp1904
S'29'
p1905
aS'2.0'
p1906
asS'[18.0, 41.0]'
p1907
(lp1908
g279
aS'25.0'
p1909
asS'[51.0, 127.0]'
p1910
(lp1911
S'29'
p1912
aS'2.0'
p1913
asS'[269.0, 270.0, 305.0]'
p1914
(lp1915
S'28'
p1916
aS'3.0'
p1917
asS'[149.0, 217.0, 218.0]'
p1918
(lp1919
S'29'
p1920
aS'2.0'
p1921
asS'[71.0, 208.0, 216.0]'
p1922
(lp1923
S'29'
p1924
aS'2.0'
p1925
asS'[72.0, 76.0, 78.0]'
p1926
(lp1927
S'28'
p1928
aS'3.0'
p1929
asS'[210.0]'
p1930
(lp1931
S'28'
p1932
aS'3.0'
p1933
asS'[270.0, 278.0, 305.0]'
p1934
(lp1935
S'26'
p1936
aS'5.0'
p1937
asS'[218.0, 223.0]'
p1938
(lp1939
S'24'
p1940
aS'7.0'
p1941
asS'[246.0, 264.0]'
p1942
(lp1943
S'22'
p1944
aS'9.0'
p1945
asS'[178.0, 268.0, 270.0]'
p1946
(lp1947
S'29'
p1948
aS'2.0'
p1949
asS'[275.0]'
p1950
(lp1951
S'26'
p1952
aS'5.0'
p1953
asS'[300.0, 305.0]'
p1954
(lp1955
S'27'
p1956
aS'4.0'
p1957
asS'[198.0, 216.0, 244.0]'
p1958
(lp1959
S'29'
p1960
aS'2.0'
p1961
asS'[47.0, 75.0]'
p1962
(lp1963
S'28'
p1964
aS'3.0'
p1965
asS'[45.0, 61.0, 89.0]'
p1966
(lp1967
S'29'
p1968
aS'2.0'
p1969
asS'[96.0, 157.0]'
p1970
(lp1971
S'27'
p1972
aS'4.0'
p1973
asS'[71.0, 252.0, 253.0]'
p1974
(lp1975
S'29'
p1976
aS'2.0'
p1977
asS'[71.0, 179.0]'
p1978
(lp1979
S'29'
p1980
aS'2.0'
p1981
asS'[53.0, 57.0]'
p1982
(lp1983
S'25'
p1984
aS'6.0'
p1985
asS'[116.0, 180.0, 306.0]'
p1986
(lp1987
S'28'
p1988
aS'3.0'
p1989
asS'[242.0, 247.0, 281.0]'
p1990
(lp1991
S'29'
p1992
aS'2.0'
p1993
asS'[270.0, 272.0, 305.0]'
p1994
(lp1995
S'29'
p1996
aS'2.0'
p1997
asS'[28.0, 140.0]'
p1998
(lp1999
S'28'
p2000
aS'3.0'
p2001
asS'[149.0, 205.0]'
p2002
(lp2003
S'24'
p2004
aS'7.0'
p2005
asS'[270.0, 277.0]'
p2006
(lp2007
S'27'
p2008
aS'4.0'
p2009
asS'[75.0, 234.0]'
p2010
(lp2011
S'0'
p2012
aS'70.0'
p2013
asS'[50.0, 58.0]'
p2014
(lp2015
S'29'
p2016
aS'2.0'
p2017
asS'[75.0, 77.0, 252.0]'
p2018
(lp2019
S'29'
p2020
aS'2.0'
p2021
asS'[143.0, 174.0]'
p2022
(lp2023
S'26'
p2024
aS'5.0'
p2025
asS'[44.0, 78.0, 161.0]'
p2026
(lp2027
S'27'
p2028
aS'4.0'
p2029
asS'[208.0]'
p2030
(lp2031
S'11'
p2032
aS'22.0'
p2033
asS'[166.0]'
p2034
(lp2035
S'24'
p2036
aS'7.0'
p2037
asS'[78.0, 150.0]'
p2038
(lp2039
S'28'
p2040
aS'3.0'
p2041
asS'[22.0, 24.0]'
p2042
(lp2043
S'29'
p2044
aS'2.0'
p2045
asS'[62.0, 72.0, 76.0]'
p2046
(lp2047
S'28'
p2048
aS'3.0'
p2049
asS'[108.0, 121.0]'
p2050
(lp2051
S'26'
p2052
aS'5.0'
p2053
asS'[216.0]'
p2054
(lp2055
g2012
aS'70.0'
p2056
asS'[101.0, 305.0]'
p2057
(lp2058
S'21'
p2059
aS'10.0'
p2060
asS'[194.0]'
p2061
(lp2062
S'21'
p2063
aS'10.0'
p2064
asS'[162.0]'
p2065
(lp2066
S'26'
p2067
aS'5.0'
p2068
asS'[3.0, 47.0]'
p2069
(lp2070
S'29'
p2071
aS'2.0'
p2072
asS'[56.0, 198.0]'
p2073
(lp2074
S'24'
p2075
aS'7.0'
p2076
asS'[111.0, 303.0]'
p2077
(lp2078
S'28'
p2079
aS'3.0'
p2080
asS'[78.0, 217.0]'
p2081
(lp2082
S'26'
p2083
aS'5.0'
p2084
asS'[78.0, 169.0, 227.0]'
p2085
(lp2086
S'29'
p2087
aS'2.0'
p2088
asS'[231.0, 242.0]'
p2089
(lp2090
S'29'
p2091
aS'2.0'
p2092
asS'[72.0, 161.0]'
p2093
(lp2094
S'24'
p2095
aS'7.0'
p2096
asS'[98.0, 127.0]'
p2097
(lp2098
S'25'
p2099
aS'6.0'
p2100
asS'[2.0, 119.0]'
p2101
(lp2102
S'29'
p2103
aS'2.0'
p2104
asS'[18.0, 102.0]'
p2105
(lp2106
S'29'
p2107
aS'2.0'
p2108
asS'[7.0, 13.0]'
p2109
(lp2110
S'29'
p2111
aS'2.0'
p2112
asS'[37.0]'
p2113
(lp2114
g211
aS'28.0'
p2115
asS'[129.0]'
p2116
(lp2117
g195
aS'29.0'
p2118
asS'[46.0, 70.0, 114.0]'
p2119
(lp2120
S'28'
p2121
aS'3.0'
p2122
asS'[77.0, 235.0]'
p2123
(lp2124
S'28'
p2125
aS'3.0'
p2126
asS'[41.0, 144.0]'
p2127
(lp2128
S'29'
p2129
aS'2.0'
p2130
asS'[71.0, 228.0]'
p2131
(lp2132
S'17'
p2133
aS'14.0'
p2134
asS'[76.0, 203.0, 217.0]'
p2135
(lp2136
S'27'
p2137
aS'4.0'
p2138
asS'[35.0]'
p2139
(lp2140
S'11'
p2141
aS'22.0'
p2142
asS'[78.0, 217.0, 240.0]'
p2143
(lp2144
S'29'
p2145
aS'2.0'
p2146
asS'[2.0, 69.0, 71.0]'
p2147
(lp2148
S'28'
p2149
aS'3.0'
p2150
asS'[180.0, 258.0]'
p2151
(lp2152
S'12'
p2153
aS'19.0'
p2154
asS'[160.0]'
p2155
(lp2156
S'13'
p2157
aS'18.0'
p2158
asS'[72.0, 76.0, 78.0, 155.0]'
p2159
(lp2160
S'29'
p2161
aS'2.0'
p2162
asS'[97.0, 101.0, 305.0]'
p2163
(lp2164
S'29'
p2165
aS'2.0'
p2166
asS'[81.0, 142.0]'
p2167
(lp2168
S'29'
p2169
aS'2.0'
p2170
asS'[74.0, 276.0]'
p2171
(lp2172
S'11'
p2173
aS'22.0'
p2174
asS'[248.0, 273.0]'
p2175
(lp2176
S'22'
p2177
aS'9.0'
p2178
asS'[117.0, 216.0]'
p2179
(lp2180
S'25'
p2181
aS'6.0'
p2182
asS'[272.0, 273.0]'
p2183
(lp2184
S'27'
p2185
aS'4.0'
p2186
asS'[196.0, 305.0]'
p2187
(lp2188
S'29'
p2189
aS'2.0'
p2190
asS'[8.0, 14.0]'
p2191
(lp2192
S'27'
p2193
aS'4.0'
p2194
asS'[55.0, 57.0, 113.0]'
p2195
(lp2196
S'29'
p2197
aS'2.0'
p2198
asS'[98.0, 305.0]'
p2199
(lp2200
S'24'
p2201
aS'7.0'
p2202
asS'[277.0]'
p2203
(lp2204
S'11'
p2205
aS'22.0'
p2206
asS'[291.0, 305.0]'
p2207
(lp2208
S'4'
p2209
aS'30.0'
p2210
asS'[71.0, 252.0]'
p2211
(lp2212
S'29'
p2213
aS'2.0'
p2214
asS'[178.0, 221.0]'
p2215
(lp2216
S'29'
p2217
aS'2.0'
p2218
asS'[187.0, 189.0]'
p2219
(lp2220
S'29'
p2221
aS'2.0'
p2222
asS'[90.0, 122.0]'
p2223
(lp2224
S'28'
p2225
aS'3.0'
p2226
asS'[73.0, 76.0, 217.0]'
p2227
(lp2228
S'28'
p2229
aS'3.0'
p2230
asS'[4.0, 10.0, 16.0]'
p2231
(lp2232
S'29'
p2233
aS'2.0'
p2234
asS'[275.0, 305.0]'
p2235
(lp2236
S'26'
p2237
aS'5.0'
p2238
asS'[217.0, 222.0]'
p2239
(lp2240
S'28'
p2241
aS'3.0'
p2242
asS'[229.0, 236.0, 277.0]'
p2243
(lp2244
S'29'
p2245
aS'2.0'
p2246
asS'[78.0, 236.0]'
p2247
(lp2248
S'26'
p2249
aS'5.0'
p2250
asS'[172.0]'
p2251
(lp2252
S'21'
p2253
aS'10.0'
p2254
asS'[218.0, 277.0]'
p2255
(lp2256
S'27'
p2257
aS'4.0'
p2258
asS'[167.0, 169.0, 305.0]'
p2259
(lp2260
S'29'
p2261
aS'2.0'
p2262
asS'[54.0, 58.0]'
p2263
(lp2264
S'28'
p2265
aS'3.0'
p2266
asS'[256.0, 305.0]'
p2267
(lp2268
S'16'
p2269
aS'15.0'
p2270
asS'[79.0, 148.0]'
p2271
(lp2272
S'28'
p2273
aS'3.0'
p2274
asS'[168.0, 234.0]'
p2275
(lp2276
S'10'
p2277
aS'23.0'
p2278
asS'[178.0, 268.0, 270.0, 305.0]'
p2279
(lp2280
S'29'
p2281
aS'2.0'
p2282
asS'[272.0]'
p2283
(lp2284
g195
aS'29.0'
p2285
asS'[75.0, 161.0]'
p2286
(lp2287
S'21'
p2288
aS'10.0'
p2289
asS'[68.0]'
p2290
(lp2291
S'26'
p2292
aS'5.0'
p2293
asS'[195.0, 203.0]'
p2294
(lp2295
S'27'
p2296
aS'4.0'
p2297
asS'[69.0, 77.0]'
p2298
(lp2299
S'25'
p2300
aS'6.0'
p2301
asS'[55.0, 119.0]'
p2302
(lp2303
S'29'
p2304
aS'2.0'
p2305
asS'[305.0]'
p2306
(lp2307
g1197
aS'44.0'
p2308
asS'[78.0, 120.0, 216.0]'
p2309
(lp2310
S'27'
p2311
aS'4.0'
p2312
asS'[77.0, 120.0]'
p2313
(lp2314
S'27'
p2315
aS'4.0'
p2316
asS'[72.0, 144.0, 158.0]'
p2317
(lp2318
S'29'
p2319
aS'2.0'
p2320
asS'[23.0, 47.0]'
p2321
(lp2322
S'19'
p2323
aS'12.0'
p2324
asS'[71.0, 73.0, 74.0, 192.0]'
p2325
(lp2326
S'29'
p2327
aS'2.0'
p2328
asS'[199.0, 221.0]'
p2329
(lp2330
S'15'
p2331
aS'16.0'
p2332
asS'[55.0, 198.0]'
p2333
(lp2334
S'28'
p2335
aS'3.0'
p2336
asS'[128.0, 174.0]'
p2337
(lp2338
S'27'
p2339
aS'4.0'
p2340
asS'[116.0, 200.0]'
p2341
(lp2342
S'21'
p2343
aS'10.0'
p2344
asS'[217.0, 224.0]'
p2345
(lp2346
S'28'
p2347
aS'3.0'
p2348
asS'[174.0, 219.0]'
p2349
(lp2350
S'3'
p2351
aS'31.0'
p2352
asS'[172.0, 216.0]'
p2353
(lp2354
S'21'
p2355
aS'10.0'
p2356
asS'[229.0, 236.0, 305.0]'
p2357
(lp2358
S'29'
p2359
aS'2.0'
p2360
asS'[214.0]'
p2361
(lp2362
S'16'
p2363
aS'15.0'
p2364
asS'[75.0, 200.0]'
p2365
(lp2366
S'29'
p2367
aS'2.0'
p2368
asS'[72.0, 76.0, 145.0]'
p2369
(lp2370
S'29'
p2371
aS'2.0'
p2372
asS'[28.0, 98.0]'
p2373
(lp2374
S'24'
p2375
aS'7.0'
p2376
asS'[75.0, 204.0, 215.0]'
p2377
(lp2378
S'28'
p2379
aS'3.0'
p2380
asS'[72.0, 74.0, 192.0]'
p2381
(lp2382
S'29'
p2383
aS'2.0'
p2384
asS'[97.0, 305.0]'
p2385
(lp2386
S'29'
p2387
aS'2.0'
p2388
asS'[151.0, 153.0, 168.0]'
p2389
(lp2390
S'29'
p2391
aS'2.0'
p2392
asS'[82.0, 177.0, 220.0]'
p2393
(lp2394
S'29'
p2395
aS'2.0'
p2396
asS'[23.0, 141.0]'
p2397
(lp2398
S'29'
p2399
aS'2.0'
p2400
asS'[58.0]'
p2401
(lp2402
S'23'
p2403
aS'8.0'
p2404
asS'[74.0, 79.0]'
p2405
(lp2406
S'15'
p2407
aS'16.0'
p2408
asS'[89.0, 139.0]'
p2409
(lp2410
g195
aS'29.0'
p2411
asS'[69.0, 71.0]'
p2412
(lp2413
S'28'
p2414
aS'3.0'
p2415
asS'[77.0, 170.0, 217.0]'
p2416
(lp2417
S'29'
p2418
aS'2.0'
p2419
asS'[14.0, 144.0]'
p2420
(lp2421
S'29'
p2422
aS'2.0'
p2423
asS'[73.0, 228.0]'
p2424
(lp2425
S'13'
p2426
aS'18.0'
p2427
asS'[278.0]'
p2428
(lp2429
g279
aS'25.0'
p2430
asS'[153.0, 166.0]'
p2431
(lp2432
S'27'
p2433
aS'4.0'
p2434
asS'[107.0, 201.0]'
p2435
(lp2436
S'29'
p2437
aS'2.0'
p2438
asS'[76.0, 154.0]'
p2439
(lp2440
S'26'
p2441
aS'5.0'
p2442
asS'[188.0, 196.0]'
p2443
(lp2444
S'27'
p2445
aS'4.0'
p2446
asS'[78.0, 117.0, 216.0]'
p2447
(lp2448
S'27'
p2449
aS'4.0'
p2450
asS'[80.0, 119.0, 158.0]'
p2451
(lp2452
S'28'
p2453
aS'3.0'
p2454
asS'[62.0, 75.0, 161.0, 178.0]'
p2455
(lp2456
S'29'
p2457
aS'2.0'
p2458
asS'[17.0, 35.0, 78.0]'
p2459
(lp2460
S'28'
p2461
aS'3.0'
p2462
asS'[51.0]'
p2463
(lp2464
g195
aS'29.0'
p2465
asS'[152.0, 227.0]'
p2466
(lp2467
S'27'
p2468
aS'4.0'
p2469
asS'[74.0, 96.0, 156.0]'
p2470
(lp2471
S'29'
p2472
aS'2.0'
p2473
asS'[82.0, 112.0, 157.0]'
p2474
(lp2475
S'29'
p2476
aS'2.0'
p2477
asS'[107.0]'
p2478
(lp2479
S'25'
p2480
aS'6.0'
p2481
asS'[14.0, 28.0]'
p2482
(lp2483
S'22'
p2484
aS'9.0'
p2485
asS'[70.0, 92.0, 118.0]'
p2486
(lp2487
S'28'
p2488
aS'3.0'
p2489
asS'[24.0, 222.0]'
p2490
(lp2491
S'22'
p2492
aS'9.0'
p2493
asS'[73.0, 229.0]'
p2494
(lp2495
S'26'
p2496
aS'5.0'
p2497
asS'[242.0, 247.0]'
p2498
(lp2499
S'26'
p2500
aS'5.0'
p2501
asS'[66.0, 112.0]'
p2502
(lp2503
g195
aS'29.0'
p2504
asS'[271.0]'
p2505
(lp2506
g211
aS'28.0'
p2507
asS'[61.0, 76.0]'
p2508
(lp2509
S'16'
p2510
aS'15.0'
p2511
asS'[156.0, 170.0]'
p2512
(lp2513
S'27'
p2514
aS'4.0'
p2515
asS'[115.0, 158.0]'
p2516
(lp2517
S'28'
p2518
aS'3.0'
p2519
asS'[41.0, 125.0]'
p2520
(lp2521
S'25'
p2522
aS'6.0'
p2523
asS'[78.0, 117.0]'
p2524
(lp2525
S'24'
p2526
aS'7.0'
p2527
asS'[235.0, 305.0]'
p2528
(lp2529
S'29'
p2530
aS'2.0'
p2531
asS'[44.0, 46.0, 90.0]'
p2532
(lp2533
S'29'
p2534
aS'2.0'
p2535
asS'[158.0, 199.0]'
p2536
(lp2537
S'26'
p2538
aS'5.0'
p2539
asS'[72.0, 76.0, 186.0]'
p2540
(lp2541
S'29'
p2542
aS'2.0'
p2543
asS'[72.0, 145.0]'
p2544
(lp2545
S'29'
p2546
aS'2.0'
p2547
asS'[73.0, 198.0]'
p2548
(lp2549
S'23'
p2550
aS'8.0'
p2551
asS'[47.0, 109.0]'
p2552
(lp2553
S'29'
p2554
aS'2.0'
p2555
asS'[68.0, 84.0]'
p2556
(lp2557
S'28'
p2558
aS'3.0'
p2559
asS'[95.0, 166.0]'
p2560
(lp2561
S'27'
p2562
aS'4.0'
p2563
asS'[158.0]'
p2564
(lp2565
S'16'
p2566
aS'15.0'
p2567
asS'[225.0, 282.0]'
p2568
(lp2569
S'29'
p2570
aS'2.0'
p2571
asS'[105.0]'
p2572
(lp2573
S'29'
p2574
aS'2.0'
p2575
asS'[17.0, 35.0, 139.0]'
p2576
(lp2577
S'29'
p2578
aS'2.0'
p2579
asS'[71.0, 73.0, 228.0]'
p2580
(lp2581
S'28'
p2582
aS'3.0'
p2583
asS'[89.0, 108.0]'
p2584
(lp2585
S'24'
p2586
aS'7.0'
p2587
asS'[3.0, 23.0, 47.0]'
p2588
(lp2589
S'29'
p2590
aS'2.0'
p2591
asS'[75.0, 204.0]'
p2592
(lp2593
S'25'
p2594
aS'6.0'
p2595
asS'[72.0, 252.0]'
p2596
(lp2597
S'20'
p2598
aS'11.0'
p2599
asS'[62.0, 178.0]'
p2600
(lp2601
S'10'
p2602
aS'23.0'
p2603
asS'[89.0, 107.0, 140.0]'
p2604
(lp2605
S'29'
p2606
aS'2.0'
p2607
asS'[116.0, 159.0, 199.0]'
p2608
(lp2609
S'29'
p2610
aS'2.0'
p2611
asS'[178.0, 268.0, 305.0]'
p2612
(lp2613
S'29'
p2614
aS'2.0'
p2615
asS'[133.0, 216.0]'
p2616
(lp2617
g442
aS'27.0'
p2618
asS'[71.0, 95.0, 127.0]'
p2619
(lp2620
S'29'
p2621
aS'2.0'
p2622
asS'[99.0, 305.0]'
p2623
(lp2624
S'22'
p2625
aS'9.0'
p2626
asS'[242.0, 281.0, 305.0]'
p2627
(lp2628
S'29'
p2629
aS'2.0'
p2630
asS'[206.0, 207.0]'
p2631
(lp2632
S'28'
p2633
aS'3.0'
p2634
asS'[72.0, 208.0]'
p2635
(lp2636
S'27'
p2637
aS'4.0'
p2638
asS'[61.0, 73.0]'
p2639
(lp2640
S'24'
p2641
aS'7.0'
p2642
asS'[46.0, 135.0]'
p2643
(lp2644
S'27'
p2645
aS'4.0'
p2646
asS'[127.0, 173.0]'
p2647
(lp2648
S'28'
p2649
aS'3.0'
p2650
asS'[73.0, 230.0]'
p2651
(lp2652
S'27'
p2653
aS'4.0'
p2654
asS'[70.0, 92.0]'
p2655
(lp2656
S'28'
p2657
aS'3.0'
p2658
asS'[153.0, 169.0, 234.0]'
p2659
(lp2660
S'26'
p2661
aS'5.0'
p2662
asS'[73.0, 227.0]'
p2663
(lp2664
S'26'
p2665
aS'5.0'
p2666
asS'[123.0, 166.0]'
p2667
(lp2668
S'28'
p2669
aS'3.0'
p2670
asS'[23.0, 118.0]'
p2671
(lp2672
S'29'
p2673
aS'2.0'
p2674
asS'[60.0, 110.0]'
p2675
(lp2676
S'15'
p2677
aS'16.0'
p2678
asS'[192.0]'
p2679
(lp2680
S'21'
p2681
aS'10.0'
p2682
asS'[228.0, 240.0]'
p2683
(lp2684
S'24'
p2685
aS'7.0'
p2686
asS'[111.0, 220.0]'
p2687
(lp2688
S'29'
p2689
aS'2.0'
p2690
asS'[131.0, 306.0]'
p2691
(lp2692
S'26'
p2693
aS'5.0'
p2694
asS'[75.0, 79.0]'
p2695
(lp2696
S'17'
p2697
aS'14.0'
p2698
asS'[98.0, 121.0]'
p2699
(lp2700
S'24'
p2701
aS'7.0'
p2702
asS'[117.0, 146.0, 217.0]'
p2703
(lp2704
S'29'
p2705
aS'2.0'
p2706
asS'[173.0, 218.0]'
p2707
(lp2708
S'26'
p2709
aS'5.0'
p2710
asS'[1.0, 78.0]'
p2711
(lp2712
S'16'
p2713
aS'15.0'
p2714
asS'[55.0]'
p2715
(lp2716
g279
aS'25.0'
p2717
asS'[31.0]'
p2718
(lp2719
S'19'
p2720
aS'12.0'
p2721
asS'[62.0, 157.0, 193.0]'
p2722
(lp2723
S'29'
p2724
aS'2.0'
p2725
asS'[97.0, 138.0]'
p2726
(lp2727
S'26'
p2728
aS'5.0'
p2729
asS'[143.0, 159.0]'
p2730
(lp2731
S'25'
p2732
aS'6.0'
p2733
asS'[103.0]'
p2734
(lp2735
S'27'
p2736
aS'4.0'
p2737
asS'[168.0]'
p2738
(lp2739
g279
aS'25.0'
p2740
asS'[137.0, 198.0]'
p2741
(lp2742
S'28'
p2743
aS'3.0'
p2744
asS'[78.0, 117.0, 146.0, 217.0]'
p2745
(lp2746
S'29'
p2747
aS'2.0'
p2748
asS'[77.0, 217.0]'
p2749
(lp2750
S'27'
p2751
aS'4.0'
p2752
asS'[169.0, 234.0]'
p2753
(lp2754
S'25'
p2755
aS'6.0'
p2756
asS'[72.0, 73.0, 228.0]'
p2757
(lp2758
S'29'
p2759
aS'2.0'
p2760
asS'[55.0, 57.0, 63.0, 113.0]'
p2761
(lp2762
S'29'
p2763
aS'2.0'
p2764
asS'[55.0, 113.0, 178.0]'
p2765
(lp2766
S'29'
p2767
aS'2.0'
p2768
asS'[123.0, 158.0, 199.0]'
p2769
(lp2770
S'29'
p2771
aS'2.0'
p2772
asS'[196.0]'
p2773
(lp2774
S'24'
p2775
aS'7.0'
p2776
asS'[225.0, 239.0, 305.0]'
p2777
(lp2778
S'29'
p2779
aS'2.0'
p2780
asS'[8.0, 44.0, 90.0]'
p2781
(lp2782
S'28'
p2783
aS'3.0'
p2784
asS'[38.0, 90.0, 122.0]'
p2785
(lp2786
S'29'
p2787
aS'2.0'
p2788
asS'[62.0, 72.0]'
p2789
(lp2790
g279
aS'25.0'
p2791
asS'[57.0]'
p2792
(lp2793
g279
aS'25.0'
p2794
asS'[76.0, 144.0]'
p2795
(lp2796
S'28'
p2797
aS'3.0'
p2798
asS'[99.0, 161.0, 305.0]'
p2799
(lp2800
S'29'
p2801
aS'2.0'
p2802
asS'[80.0, 81.0, 82.0]'
p2803
(lp2804
S'29'
p2805
aS'2.0'
p2806
asS'[71.0, 81.0]'
p2807
(lp2808
S'28'
p2809
aS'3.0'
p2810
asS'[18.0, 48.0]'
p2811
(lp2812
S'25'
p2813
aS'6.0'
p2814
asS'[75.0, 252.0]'
p2815
(lp2816
S'27'
p2817
aS'4.0'
p2818
asS'[153.0, 167.0, 169.0]'
p2819
(lp2820
S'29'
p2821
aS'2.0'
p2822
asS'[153.0, 169.0]'
p2823
(lp2824
S'26'
p2825
aS'5.0'
p2826
asS'[85.0]'
p2827
(lp2828
S'25'
p2829
aS'6.0'
p2830
asS'[72.0, 76.0, 78.0, 217.0]'
p2831
(lp2832
S'28'
p2833
aS'3.0'
p2834
asS'[112.0, 148.0]'
p2835
(lp2836
S'26'
p2837
aS'5.0'
p2838
asS'[91.0, 120.0]'
p2839
(lp2840
S'28'
p2841
aS'3.0'
p2842
asS'[179.0, 258.0]'
p2843
(lp2844
S'24'
p2845
aS'7.0'
p2846
asS'[52.0, 95.0]'
p2847
(lp2848
S'28'
p2849
aS'3.0'
p2850
asS'[116.0, 124.0, 200.0]'
p2851
(lp2852
S'27'
p2853
aS'4.0'
p2854
asS'[78.0, 120.0]'
p2855
(lp2856
S'27'
p2857
aS'4.0'
p2858
asS'[76.0, 219.0, 224.0]'
p2859
(lp2860
S'29'
p2861
aS'2.0'
p2862
asS'[203.0, 207.0]'
p2863
(lp2864
S'29'
p2865
aS'2.0'
p2866
asS'[75.0, 149.0]'
p2867
(lp2868
S'28'
p2869
aS'3.0'
p2870
asS'[71.0, 73.0, 74.0, 216.0]'
p2871
(lp2872
S'29'
p2873
aS'2.0'
p2874
asS'[76.0, 78.0, 155.0, 216.0]'
p2875
(lp2876
S'29'
p2877
aS'2.0'
p2878
asS'[80.0, 206.0]'
p2879
(lp2880
g279
aS'25.0'
p2881
asS'[240.0, 278.0]'
p2882
(lp2883
g279
aS'25.0'
p2884
asS'[117.0, 270.0]'
p2885
(lp2886
S'28'
p2887
aS'3.0'
p2888
asS'[236.0, 279.0, 305.0]'
p2889
(lp2890
S'28'
p2891
aS'3.0'
p2892
asS'[52.0, 184.0]'
p2893
(lp2894
S'29'
p2895
aS'2.0'
p2896
asS'[188.0, 305.0]'
p2897
(lp2898
S'25'
p2899
aS'6.0'
p2900
asS'[71.0, 255.0]'
p2901
(lp2902
S'28'
p2903
aS'3.0'
p2904
asS'[259.0, 305.0]'
p2905
(lp2906
S'28'
p2907
aS'3.0'
p2908
asS'[82.0, 163.0]'
p2909
(lp2910
S'26'
p2911
aS'5.0'
p2912
asS'[8.0, 34.0, 99.0]'
p2913
(lp2914
S'29'
p2915
aS'2.0'
p2916
asS'[61.0, 119.0]'
p2917
(lp2918
g195
aS'29.0'
p2919
asS'[71.0, 149.0, 215.0]'
p2920
(lp2921
S'29'
p2922
aS'2.0'
p2923
asS'[27.0, 30.0]'
p2924
(lp2925
S'29'
p2926
aS'2.0'
p2927
asS'[270.0, 279.0]'
p2928
(lp2929
S'29'
p2930
aS'2.0'
p2931
asS'[169.0, 305.0]'
p2932
(lp2933
S'22'
p2934
aS'9.0'
p2935
asS'[52.0, 57.0]'
p2936
(lp2937
S'29'
p2938
aS'2.0'
p2939
asS'[256.0, 257.0]'
p2940
(lp2941
S'27'
p2942
aS'4.0'
p2943
asS'[273.0, 280.0]'
p2944
(lp2945
S'29'
p2946
aS'2.0'
p2947
asS'[103.0, 136.0, 198.0]'
p2948
(lp2949
S'29'
p2950
aS'2.0'
p2951
asS'[194.0, 223.0, 224.0]'
p2952
(lp2953
S'28'
p2954
aS'3.0'
p2955
asS'[71.0, 253.0]'
p2956
(lp2957
S'29'
p2958
aS'2.0'
p2959
asS'[87.0]'
p2960
(lp2961
S'12'
p2962
aS'19.0'
p2963
asS'[98.0, 100.0, 121.0]'
p2964
(lp2965
S'29'
p2966
aS'2.0'
p2967
asS'[76.0, 200.0]'
p2968
(lp2969
S'24'
p2970
aS'7.0'
p2971
asS'[71.0, 73.0, 253.0]'
p2972
(lp2973
S'29'
p2974
aS'2.0'
p2975
asS'[72.0, 78.0]'
p2976
(lp2977
S'28'
p2978
aS'3.0'
p2979
asS'[178.0, 238.0]'
p2980
(lp2981
S'27'
p2982
aS'4.0'
p2983
asS'[114.0, 177.0]'
p2984
(lp2985
S'15'
p2986
aS'16.0'
p2987
asS'[72.0, 254.0]'
p2988
(lp2989
S'27'
p2990
aS'4.0'
p2991
asS'[38.0, 101.0, 121.0]'
p2992
(lp2993
S'29'
p2994
aS'2.0'
p2995
asS'[91.0, 200.0]'
p2996
(lp2997
S'16'
p2998
aS'15.0'
p2999
asS'[188.0, 190.0, 305.0]'
p3000
(lp3001
S'28'
p3002
aS'3.0'
p3003
asS'[74.0, 96.0, 157.0, 193.0]'
p3004
(lp3005
S'29'
p3006
aS'2.0'
p3007
asS'[71.0, 251.0]'
p3008
(lp3009
S'26'
p3010
aS'5.0'
p3011
asS'[193.0]'
p3012
(lp3013
S'18'
p3014
aS'13.0'
p3015
asS'[73.0, 145.0, 198.0]'
p3016
(lp3017
S'28'
p3018
aS'3.0'
p3019
asS'[204.0]'
p3020
(lp3021
g195
aS'29.0'
p3022
asS'[112.0, 178.0]'
p3023
(lp3024
S'20'
p3025
aS'11.0'
p3026
asS'[236.0, 277.0]'
p3027
(lp3028
S'26'
p3029
aS'5.0'
p3030
asS'[157.0, 221.0]'
p3031
(lp3032
S'29'
p3033
aS'2.0'
p3034
asS'[75.0, 76.0, 234.0]'
p3035
(lp3036
S'29'
p3037
aS'2.0'
p3038
asS'[191.0]'
p3039
(lp3040
g1197
aS'44.0'
p3041
asS'[75.0, 76.0, 203.0]'
p3042
(lp3043
S'29'
p3044
aS'2.0'
p3045
asS'[51.0, 59.0, 67.0]'
p3046
(lp3047
S'29'
p3048
aS'2.0'
p3049
asS'[193.0, 216.0]'
p3050
(lp3051
S'28'
p3052
aS'3.0'
p3053
asS'[71.0, 149.0, 217.0]'
p3054
(lp3055
S'29'
p3056
aS'2.0'
p3057
asS'[54.0]'
p3058
(lp3059
S'26'
p3060
aS'5.0'
p3061
asS'[301.0]'
p3062
(lp3063
S'13'
p3064
aS'18.0'
p3065
asS'[76.0, 149.0, 205.0]'
p3066
(lp3067
S'24'
p3068
aS'7.0'
p3069
asS'[52.0, 91.0]'
p3070
(lp3071
S'26'
p3072
aS'5.0'
p3073
asS'[142.0]'
p3074
(lp3075
S'14'
p3076
aS'17.0'
p3077
asS'[76.0, 236.0]'
p3078
(lp3079
S'27'
p3080
aS'4.0'
p3081
asS'[71.0, 149.0]'
p3082
(lp3083
S'28'
p3084
aS'3.0'
p3085
asS'[247.0]'
p3086
(lp3087
S'10'
p3088
aS'23.0'
p3089
asS'[72.0, 73.0, 76.0, 192.0]'
p3090
(lp3091
S'29'
p3092
aS'2.0'
p3093
asS'[71.0, 93.0, 95.0]'
p3094
(lp3095
S'29'
p3096
aS'2.0'
p3097
asS'[73.0, 75.0, 76.0]'
p3098
(lp3099
S'29'
p3100
aS'2.0'
p3101
asS'[51.0, 67.0]'
p3102
(lp3103
S'16'
p3104
aS'15.0'
p3105
asS'[245.0, 270.0]'
p3106
(lp3107
S'27'
p3108
aS'4.0'
p3109
asS'[117.0, 164.0]'
p3110
(lp3111
S'29'
p3112
aS'2.0'
p3113
asS'[174.0]'
p3114
(lp3115
g2351
aS'31.0'
p3116
asS'[92.0, 118.0]'
p3117
(lp3118
S'28'
p3119
aS'3.0'
p3120
asS'[178.0, 254.0, 255.0, 305.0]'
p3121
(lp3122
S'29'
p3123
aS'2.0'
p3124
asS'[57.0, 88.0, 109.0]'
p3125
(lp3126
S'29'
p3127
aS'2.0'
p3128
asS'[72.0, 74.0, 229.0]'
p3129
(lp3130
S'29'
p3131
aS'2.0'
p3132
asS'[75.0, 76.0, 237.0]'
p3133
(lp3134
S'29'
p3135
aS'2.0'
p3136
asS'[148.0, 178.0, 221.0]'
p3137
(lp3138
S'29'
p3139
aS'2.0'
p3140
asS'[72.0, 76.0, 186.0, 188.0]'
p3141
(lp3142
S'29'
p3143
aS'2.0'
p3144
asS'[1.0, 159.0]'
p3145
(lp3146
S'21'
p3147
aS'10.0'
p3148
asS'[43.0, 73.0, 145.0]'
p3149
(lp3150
S'29'
p3151
aS'2.0'
p3152
asS'[72.0, 145.0, 192.0]'
p3153
(lp3154
S'29'
p3155
aS'2.0'
p3156
asS'[59.0, 67.0]'
p3157
(lp3158
S'29'
p3159
aS'2.0'
p3160
asS'[101.0]'
p3161
(lp3162
S'11'
p3163
aS'22.0'
p3164
asS'[71.0, 145.0, 192.0]'
p3165
(lp3166
S'29'
p3167
aS'2.0'
p3168
asS'[133.0, 172.0, 216.0]'
p3169
(lp3170
S'27'
p3171
aS'4.0'
p3172
asS'[76.0, 234.0]'
p3173
(lp3174
S'25'
p3175
aS'6.0'
p3176
asS'[89.0, 101.0, 121.0]'
p3177
(lp3178
S'29'
p3179
aS'2.0'
p3180
asS'[17.0, 35.0]'
p3181
(lp3182
S'11'
p3183
aS'22.0'
p3184
asS'[303.0]'
p3185
(lp3186
S'19'
p3187
aS'12.0'
p3188
asS'[140.0]'
p3189
(lp3190
S'11'
p3191
aS'22.0'
p3192
asS'[16.0, 44.0, 90.0]'
p3193
(lp3194
S'29'
p3195
aS'2.0'
p3196
asS'[153.0, 168.0, 270.0]'
p3197
(lp3198
S'29'
p3199
aS'2.0'
p3200
asS'[51.0, 88.0, 109.0]'
p3201
(lp3202
S'29'
p3203
aS'2.0'
p3204
asS'[22.0, 101.0]'
p3205
(lp3206
S'28'
p3207
aS'3.0'
p3208
asS'[35.0, 78.0]'
p3209
(lp3210
S'28'
p3211
aS'3.0'
p3212
asS'[72.0, 78.0, 192.0]'
p3213
(lp3214
S'29'
p3215
aS'2.0'
p3216
asS'[76.0, 241.0]'
p3217
(lp3218
S'29'
p3219
aS'2.0'
p3220
asS'[17.0, 139.0]'
p3221
(lp3222
S'25'
p3223
aS'6.0'
p3224
asS'[78.0, 198.0, 240.0]'
p3225
(lp3226
S'28'
p3227
aS'3.0'
p3228
asS'[268.0]'
p3229
(lp3230
S'16'
p3231
aS'15.0'
p3232
asS'[72.0, 228.0]'
p3233
(lp3234
S'29'
p3235
aS'2.0'
p3236
asS'[37.0, 121.0]'
p3237
(lp3238
S'29'
p3239
aS'2.0'
p3240
asS'[186.0, 188.0]'
p3241
(lp3242
g195
aS'29.0'
p3243
asS'[63.0]'
p3244
(lp3245
S'25'
p3246
aS'6.0'
p3247
asS'[61.0]'
p3248
(lp3249
g195
aS'29.0'
p3250
asS'[24.0, 157.0]'
p3251
(lp3252
S'22'
p3253
aS'9.0'
p3254
asS'[7.0, 40.0]'
p3255
(lp3256
S'27'
p3257
aS'4.0'
p3258
asS'[78.0, 240.0]'
p3259
(lp3260
S'15'
p3261
aS'16.0'
p3262
asS'[50.0, 58.0, 84.0]'
p3263
(lp3264
S'29'
p3265
aS'2.0'
p3266
asS'[23.0, 40.0]'
p3267
(lp3268
S'29'
p3269
aS'2.0'
p3270
asS'[221.0, 270.0]'
p3271
(lp3272
S'17'
p3273
aS'14.0'
p3274
asS'[7.0, 101.0, 305.0]'
p3275
(lp3276
S'29'
p3277
aS'2.0'
p3278
asS'[38.0, 71.0, 77.0]'
p3279
(lp3280
S'29'
p3281
aS'2.0'
p3282
asS'[78.0, 111.0]'
p3283
(lp3284
S'25'
p3285
aS'6.0'
p3286
asS'[15.0, 23.0]'
p3287
(lp3288
S'21'
p3289
aS'10.0'
p3290
asS'[219.0, 276.0]'
p3291
(lp3292
S'11'
p3293
aS'22.0'
p3294
asS'[74.0, 157.0, 193.0, 216.0]'
p3295
(lp3296
S'29'
p3297
aS'2.0'
p3298
asS'[188.0, 190.0]'
p3299
(lp3300
S'28'
p3301
aS'3.0'
p3302
asS'[81.0, 203.0, 217.0]'
p3303
(lp3304
S'28'
p3305
aS'3.0'
p3306
asS'[76.0, 188.0]'
p3307
(lp3308
S'28'
p3309
aS'3.0'
p3310
asS'[95.0, 107.0, 140.0]'
p3311
(lp3312
S'29'
p3313
aS'2.0'
p3314
asS'[86.0, 119.0]'
p3315
(lp3316
S'24'
p3317
aS'7.0'
p3318
asS'[247.0, 257.0]'
p3319
(lp3320
S'29'
p3321
aS'2.0'
p3322
asS'[168.0, 269.0]'
p3323
(lp3324
S'23'
p3325
aS'8.0'
p3326
asS'[78.0, 115.0]'
p3327
(lp3328
S'29'
p3329
aS'2.0'
p3330
asS'[168.0, 269.0, 270.0]'
p3331
(lp3332
S'28'
p3333
aS'3.0'
p3334
asS'[78.0, 217.0, 218.0]'
p3335
(lp3336
S'27'
p3337
aS'4.0'
p3338
asS'[69.0, 71.0, 77.0]'
p3339
(lp3340
S'28'
p3341
aS'3.0'
p3342
asS'[117.0, 162.0]'
p3343
(lp3344
S'29'
p3345
aS'2.0'
p3346
asS'[76.0, 78.0, 149.0, 216.0]'
p3347
(lp3348
S'28'
p3349
aS'3.0'
p3350
asS'[80.0, 145.0]'
p3351
(lp3352
S'28'
p3353
aS'3.0'
p3354
asS'[124.0]'
p3355
(lp3356
S'27'
p3357
aS'4.0'
p3358
asS'[72.0, 76.0, 219.0]'
p3359
(lp3360
S'28'
p3361
aS'3.0'
p3362
asS'[71.0, 236.0]'
p3363
(lp3364
S'21'
p3365
aS'10.0'
p3366
asS'[297.0, 305.0]'
p3367
(lp3368
S'25'
p3369
aS'6.0'
p3370
asS'[62.0, 157.0, 178.0]'
p3371
(lp3372
S'29'
p3373
aS'2.0'
p3374
asS'[77.0, 234.0, 276.0]'
p3375
(lp3376
S'28'
p3377
aS'3.0'
p3378
asS'[76.0, 155.0, 216.0]'
p3379
(lp3380
S'29'
p3381
aS'2.0'
p3382
asS'[196.0, 273.0]'
p3383
(lp3384
S'27'
p3385
aS'4.0'
p3386
asS'[72.0, 73.0, 74.0]'
p3387
(lp3388
S'27'
p3389
aS'4.0'
p3390
asS'[90.0, 129.0]'
p3391
(lp3392
S'25'
p3393
aS'6.0'
p3394
asS'[15.0]'
p3395
(lp3396
S'19'
p3397
aS'12.0'
p3398
asS'[293.0]'
p3399
(lp3400
S'22'
p3401
aS'9.0'
p3402
asS'[52.0, 87.0, 88.0]'
p3403
(lp3404
S'29'
p3405
aS'2.0'
p3406
asS'[206.0]'
p3407
(lp3408
g279
aS'25.0'
p3409
asS'[51.0, 71.0, 127.0]'
p3410
(lp3411
S'29'
p3412
aS'2.0'
p3413
asS'[80.0, 192.0]'
p3414
(lp3415
S'25'
p3416
aS'6.0'
p3417
asS'[67.0]'
p3418
(lp3419
S'13'
p3420
aS'18.0'
p3421
asS'[8.0, 99.0, 305.0]'
p3422
(lp3423
S'28'
p3424
aS'3.0'
p3425
asS'[78.0, 117.0, 146.0]'
p3426
(lp3427
S'29'
p3428
aS'2.0'
p3429
asS'[6.0, 18.0]'
p3430
(lp3431
S'27'
p3432
aS'4.0'
p3433
asS'[195.0, 198.0]'
p3434
(lp3435
S'27'
p3436
aS'4.0'
p3437
asS'[44.0, 46.0]'
p3438
(lp3439
S'29'
p3440
aS'2.0'
p3441
asS'[120.0]'
p3442
(lp3443
S'25'
p3444
aS'6.0'
p3445
asS'[122.0]'
p3446
(lp3447
S'23'
p3448
aS'8.0'
p3449
asS'[297.0]'
p3450
(lp3451
S'25'
p3452
aS'6.0'
p3453
asS'[72.0, 228.0, 240.0]'
p3454
(lp3455
S'29'
p3456
aS'2.0'
p3457
asS'[23.0, 40.0, 118.0]'
p3458
(lp3459
S'29'
p3460
aS'2.0'
p3461
asS'[219.0, 306.0]'
p3462
(lp3463
S'28'
p3464
aS'3.0'
p3465
asS'[233.0, 243.0, 281.0]'
p3466
(lp3467
S'29'
p3468
aS'2.0'
p3469
asS'[72.0, 73.0, 76.0]'
p3470
(lp3471
S'28'
p3472
aS'3.0'
p3473
asS'[198.0, 241.0]'
p3474
(lp3475
S'29'
p3476
aS'2.0'
p3477
asS'[19.0, 122.0]'
p3478
(lp3479
S'23'
p3480
aS'8.0'
p3481
asS'[152.0, 169.0]'
p3482
(lp3483
S'23'
p3484
aS'8.0'
p3485
asS'[4.0]'
p3486
(lp3487
g279
aS'25.0'
p3488
asS'[78.0, 226.0]'
p3489
(lp3490
S'29'
p3491
aS'2.0'
p3492
asS'[231.0]'
p3493
(lp3494
S'25'
p3495
aS'6.0'
p3496
asS'[8.0, 101.0]'
p3497
(lp3498
S'11'
p3499
aS'22.0'
p3500
asS'[76.0, 205.0, 208.0]'
p3501
(lp3502
S'29'
p3503
aS'2.0'
p3504
asS'[253.0, 277.0]'
p3505
(lp3506
S'11'
p3507
aS'22.0'
p3508
asS'[57.0, 63.0, 113.0]'
p3509
(lp3510
S'27'
p3511
aS'4.0'
p3512
asS'[200.0]'
p3513
(lp3514
S'16'
p3515
aS'15.0'
p3516
asS'[216.0, 244.0]'
p3517
(lp3518
S'29'
p3519
aS'2.0'
p3520
asS'[71.0, 77.0, 217.0, 240.0]'
p3521
(lp3522
S'29'
p3523
aS'2.0'
p3524
asS'[108.0, 139.0]'
p3525
(lp3526
S'29'
p3527
aS'2.0'
p3528
asS'[268.0, 270.0]'
p3529
(lp3530
S'29'
p3531
aS'2.0'
p3532
asS'[6.0]'
p3533
(lp3534
S'27'
p3535
aS'4.0'
p3536
asS'[78.0, 199.0]'
p3537
(lp3538
S'29'
p3539
aS'2.0'
p3540
asS'[97.0, 143.0]'
p3541
(lp3542
S'23'
p3543
aS'8.0'
p3544
asS'[34.0, 94.0]'
p3545
(lp3546
S'23'
p3547
aS'8.0'
p3548
asS'[56.0, 86.0]'
p3549
(lp3550
S'28'
p3551
aS'3.0'
p3552
asS'[77.0, 141.0, 143.0]'
p3553
(lp3554
S'27'
p3555
aS'4.0'
p3556
asS'[195.0, 198.0, 216.0, 244.0]'
p3557
(lp3558
S'29'
p3559
aS'2.0'
p3560
asS'[202.0]'
p3561
(lp3562
S'24'
p3563
aS'7.0'
p3564
asS'[72.0, 76.0, 228.0]'
p3565
(lp3566
S'29'
p3567
aS'2.0'
p3568
asS'[298.0, 305.0]'
p3569
(lp3570
S'27'
p3571
aS'4.0'
p3572
asS'[71.0, 234.0]'
p3573
(lp3574
S'28'
p3575
aS'3.0'
p3576
asS'[75.0, 76.0]'
p3577
(lp3578
S'29'
p3579
aS'2.0'
p3580
asS'[8.0, 90.0, 122.0]'
p3581
(lp3582
S'28'
p3583
aS'3.0'
p3584
asS'[4.0, 10.0]'
p3585
(lp3586
S'29'
p3587
aS'2.0'
p3588
asS'[75.0, 203.0, 207.0]'
p3589
(lp3590
S'29'
p3591
aS'2.0'
p3592
asS'[99.0, 123.0]'
p3593
(lp3594
S'29'
p3595
aS'2.0'
p3596
asS'[201.0]'
p3597
(lp3598
S'17'
p3599
aS'14.0'
p3600
asS'[78.0, 155.0]'
p3601
(lp3602
S'29'
p3603
aS'2.0'
p3604
asS'[88.0, 109.0]'
p3605
(lp3606
S'29'
p3607
aS'2.0'
p3608
asS'[73.0, 253.0]'
p3609
(lp3610
S'29'
p3611
aS'2.0'
p3612
asS'[178.0, 270.0, 305.0]'
p3613
(lp3614
S'29'
p3615
aS'2.0'
p3616
asS'[236.0, 279.0]'
p3617
(lp3618
S'23'
p3619
aS'8.0'
p3620
asS'[157.0, 193.0, 216.0]'
p3621
(lp3622
S'28'
p3623
aS'3.0'
p3624
asS'[38.0, 122.0]'
p3625
(lp3626
S'26'
p3627
aS'5.0'
p3628
asS'[245.0, 276.0]'
p3629
(lp3630
S'26'
p3631
aS'5.0'
p3632
asS'[71.0, 73.0, 74.0, 185.0]'
p3633
(lp3634
S'29'
p3635
aS'2.0'
p3636
asS'[151.0, 169.0]'
p3637
(lp3638
S'28'
p3639
aS'3.0'
p3640
asS'[45.0, 61.0, 119.0]'
p3641
(lp3642
S'28'
p3643
aS'3.0'
p3644
asS'[92.0, 114.0]'
p3645
(lp3646
S'11'
p3647
aS'22.0'
p3648
asS'[38.0, 90.0, 101.0, 122.0]'
p3649
(lp3650
S'29'
p3651
aS'2.0'
p3652
asS'[77.0, 91.0, 158.0]'
p3653
(lp3654
S'29'
p3655
aS'2.0'
p3656
asS'[73.0, 76.0, 145.0, 192.0]'
p3657
(lp3658
S'28'
p3659
aS'3.0'
p3660
asS'[144.0, 158.0]'
p3661
(lp3662
S'29'
p3663
aS'2.0'
p3664
asS'[51.0, 73.0]'
p3665
(lp3666
S'11'
p3667
aS'22.0'
p3668
asS'[72.0, 92.0]'
p3669
(lp3670
S'29'
p3671
aS'2.0'
p3672
asS'[2.0, 77.0, 91.0]'
p3673
(lp3674
S'29'
p3675
aS'2.0'
p3676
asS'[48.0, 216.0]'
p3677
(lp3678
S'29'
p3679
aS'2.0'
p3680
asS'[9.0, 305.0]'
p3681
(lp3682
S'10'
p3683
aS'23.0'
p3684
asS'[51.0, 109.0]'
p3685
(lp3686
S'29'
p3687
aS'2.0'
p3688
asS'[76.0, 192.0]'
p3689
(lp3690
S'27'
p3691
aS'4.0'
p3692
asS'[169.0, 227.0, 305.0]'
p3693
(lp3694
S'28'
p3695
aS'3.0'
p3696
asS'[73.0, 74.0, 276.0]'
p3697
(lp3698
S'29'
p3699
aS'2.0'
p3700
asS'[72.0, 192.0]'
p3701
(lp3702
S'29'
p3703
aS'2.0'
p3704
asS'[76.0, 170.0, 217.0]'
p3705
(lp3706
S'29'
p3707
aS'2.0'
p3708
asS'[172.0, 222.0]'
p3709
(lp3710
S'27'
p3711
aS'4.0'
p3712
asS'[53.0, 303.0]'
p3713
(lp3714
S'29'
p3715
aS'2.0'
p3716
asS'[75.0, 76.0, 251.0, 252.0]'
p3717
(lp3718
S'29'
p3719
aS'2.0'
p3720
asS'[97.0, 140.0]'
p3721
(lp3722
S'11'
p3723
aS'22.0'
p3724
asS'[51.0, 71.0]'
p3725
(lp3726
g195
aS'29.0'
p3727
asS'[229.0, 277.0]'
p3728
(lp3729
S'27'
p3730
aS'4.0'
p3731
asS'[2.0]'
p3732
(lp3733
S'17'
p3734
aS'14.0'
p3735
asS'[169.0, 226.0]'
p3736
(lp3737
S'29'
p3738
aS'2.0'
p3739
asS'[230.0, 241.0, 278.0]'
p3740
(lp3741
S'29'
p3742
aS'2.0'
p3743
asS'[15.0, 23.0, 31.0]'
p3744
(lp3745
S'21'
p3746
aS'10.0'
p3747
asS'[199.0]'
p3748
(lp3749
S'15'
p3750
aS'16.0'
p3751
asS'[151.0]'
p3752
(lp3753
S'24'
p3754
aS'7.0'
p3755
asS'[8.0, 100.0]'
p3756
(lp3757
S'29'
p3758
aS'2.0'
p3759
asS'[77.0, 217.0, 240.0]'
p3760
(lp3761
S'29'
p3762
aS'2.0'
p3763
asS'[74.0, 229.0]'
p3764
(lp3765
S'27'
p3766
aS'4.0'
p3767
asS'[72.0, 158.0]'
p3768
(lp3769
S'29'
p3770
aS'2.0'
p3771
asS'[242.0, 281.0]'
p3772
(lp3773
S'29'
p3774
aS'2.0'
p3775
asS'[71.0, 197.0]'
p3776
(lp3777
S'29'
p3778
aS'2.0'
p3779
asS'[74.0, 157.0]'
p3780
(lp3781
S'29'
p3782
aS'2.0'
p3783
asS'[74.0, 160.0]'
p3784
(lp3785
S'27'
p3786
aS'4.0'
p3787
asS'[65.0]'
p3788
(lp3789
S'29'
p3790
aS'2.0'
p3791
asS'[19.0, 118.0]'
p3792
(lp3793
S'26'
p3794
aS'5.0'
p3795
asS'[219.0, 245.0, 276.0]'
p3796
(lp3797
S'26'
p3798
aS'5.0'
p3799
asS'[62.0, 78.0, 161.0]'
p3800
(lp3801
S'29'
p3802
aS'2.0'
p3803
asS'[50.0, 53.0]'
p3804
(lp3805
S'29'
p3806
aS'2.0'
p3807
asS'[126.0, 160.0]'
p3808
(lp3809
S'29'
p3810
aS'2.0'
p3811
asS'[107.0, 140.0]'
p3812
(lp3813
S'29'
p3814
aS'2.0'
p3815
asS'[38.0, 120.0]'
p3816
(lp3817
S'28'
p3818
aS'3.0'
p3819
asS'[62.0, 75.0, 76.0]'
p3820
(lp3821
S'29'
p3822
aS'2.0'
p3823
asS'[247.0, 271.0]'
p3824
(lp3825
S'10'
p3826
aS'23.0'
p3827
asS'[281.0, 305.0]'
p3828
(lp3829
S'28'
p3830
aS'3.0'
p3831
asS'[8.0, 90.0, 101.0, 122.0]'
p3832
(lp3833
S'28'
p3834
aS'3.0'
p3835
asS'[198.0, 242.0]'
p3836
(lp3837
S'29'
p3838
aS'2.0'
p3839
asS'[204.0, 216.0]'
p3840
(lp3841
S'29'
p3842
aS'2.0'
p3843
asS'[273.0, 281.0]'
p3844
(lp3845
S'24'
p3846
aS'7.0'
p3847
asS'[12.0, 24.0, 118.0]'
p3848
(lp3849
S'29'
p3850
aS'2.0'
p3851
asS'[203.0]'
p3852
(lp3853
S'25'
p3854
aS'6.0'
p3855
asS'[77.0, 252.0, 253.0]'
p3856
(lp3857
S'29'
p3858
aS'2.0'
p3859
asS'[263.0, 305.0]'
p3860
(lp3861
S'29'
p3862
aS'2.0'
p3863
asS'[166.0, 168.0, 251.0]'
p3864
(lp3865
S'26'
p3866
aS'5.0'
p3867
asS'[75.0, 203.0, 223.0]'
p3868
(lp3869
S'29'
p3870
aS'2.0'
p3871
asS'[179.0, 222.0]'
p3872
(lp3873
S'29'
p3874
aS'2.0'
p3875
asS'[192.0, 200.0]'
p3876
(lp3877
S'29'
p3878
aS'2.0'
p3879
asS'[36.0, 102.0]'
p3880
(lp3881
S'27'
p3882
aS'4.0'
p3883
asS'[71.0, 229.0, 236.0]'
p3884
(lp3885
S'29'
p3886
aS'2.0'
p3887
asS'[77.0, 158.0]'
p3888
(lp3889
S'16'
p3890
aS'15.0'
p3891
asS'[119.0, 145.0]'
p3892
(lp3893
S'26'
p3894
aS'5.0'
p3895
asS'[11.0]'
p3896
(lp3897
S'20'
p3898
aS'11.0'
p3899
asS'[242.0, 278.0]'
p3900
(lp3901
S'21'
p3902
aS'10.0'
p3903
asS'[72.0, 217.0, 242.0]'
p3904
(lp3905
S'22'
p3906
aS'9.0'
p3907
asS'[115.0, 128.0]'
p3908
(lp3909
S'28'
p3910
aS'3.0'
p3911
asS'[269.0, 270.0]'
p3912
(lp3913
S'28'
p3914
aS'3.0'
p3915
asS'[38.0, 121.0]'
p3916
(lp3917
S'26'
p3918
aS'5.0'
p3919
asS'[13.0]'
p3920
(lp3921
S'20'
p3922
aS'11.0'
p3923
asS'[261.0, 305.0]'
p3924
(lp3925
S'29'
p3926
aS'2.0'
p3927
asS'[97.0, 99.0]'
p3928
(lp3929
S'26'
p3930
aS'5.0'
p3931
asS'[167.0, 169.0]'
p3932
(lp3933
S'29'
p3934
aS'2.0'
p3935
asS'[180.0, 198.0]'
p3936
(lp3937
S'29'
p3938
aS'2.0'
p3939
asS'[47.0, 85.0]'
p3940
(lp3941
S'29'
p3942
aS'2.0'
p3943
asS'[82.0, 217.0, 218.0]'
p3944
(lp3945
S'28'
p3946
aS'3.0'
p3947
asS'[71.0, 253.0, 254.0]'
p3948
(lp3949
S'29'
p3950
aS'2.0'
p3951
asS'[77.0, 120.0, 184.0]'
p3952
(lp3953
S'29'
p3954
aS'2.0'
p3955
asS'[150.0]'
p3956
(lp3957
g279
aS'25.0'
p3958
asS'[126.0]'
p3959
(lp3960
S'25'
p3961
aS'6.0'
p3962
asS'[74.0, 96.0, 193.0]'
p3963
(lp3964
S'29'
p3965
aS'2.0'
p3966
asS'[259.0]'
p3967
(lp3968
S'26'
p3969
aS'5.0'
p3970
asS'[291.0]'
p3971
(lp3972
g2209
aS'30.0'
p3973
asS'[90.0, 145.0]'
p3974
(lp3975
S'27'
p3976
aS'4.0'
p3977
asS'[185.0]'
p3978
(lp3979
S'23'
p3980
aS'8.0'
p3981
asS'[71.0, 181.0, 217.0]'
p3982
(lp3983
S'26'
p3984
aS'5.0'
p3985
asS'[72.0, 217.0, 240.0]'
p3986
(lp3987
S'29'
p3988
aS'2.0'
p3989
asS'[95.0, 107.0, 141.0]'
p3990
(lp3991
S'28'
p3992
aS'3.0'
p3993
asS'[89.0, 100.0]'
p3994
(lp3995
g195
aS'29.0'
p3996
asS'[76.0, 78.0, 217.0]'
p3997
(lp3998
S'27'
p3999
aS'4.0'
p4000
asS'[12.0, 118.0]'
p4001
(lp4002
S'21'
p4003
aS'10.0'
p4004
asS'[72.0, 73.0, 76.0, 145.0]'
p4005
(lp4006
S'29'
p4007
aS'2.0'
p4008
asS'[57.0, 90.0, 114.0]'
p4009
(lp4010
S'29'
p4011
aS'2.0'
p4012
asS'[217.0, 244.0]'
p4013
(lp4014
S'25'
p4015
aS'6.0'
p4016
asS'[22.0, 44.0]'
p4017
(lp4018
S'24'
p4019
aS'7.0'
p4020
asS'[52.0, 127.0]'
p4021
(lp4022
S'28'
p4023
aS'3.0'
p4024
asS'[234.0, 305.0]'
p4025
(lp4026
S'27'
p4027
aS'4.0'
p4028
asS'[182.0, 216.0]'
p4029
(lp4030
S'29'
p4031
aS'2.0'
p4032
asS'[269.0, 270.0, 277.0]'
p4033
(lp4034
S'28'
p4035
aS'3.0'
p4036
asS'[79.0, 138.0]'
p4037
(lp4038
S'29'
p4039
aS'2.0'
p4040
asS'[252.0]'
p4041
(lp4042
S'20'
p4043
aS'11.0'
p4044
asS'[53.0, 70.0]'
p4045
(lp4046
S'29'
p4047
aS'2.0'
p4048
asS'[250.0]'
p4049
(lp4050
S'11'
p4051
aS'22.0'
p4052
asS'[9.0, 17.0]'
p4053
(lp4054
S'23'
p4055
aS'8.0'
p4056
asS'[242.0, 278.0, 305.0]'
p4057
(lp4058
S'26'
p4059
aS'5.0'
p4060
asS'[95.0, 141.0]'
p4061
(lp4062
S'27'
p4063
aS'4.0'
p4064
asS'[80.0, 82.0]'
p4065
(lp4066
S'22'
p4067
aS'9.0'
p4068
asS'[231.0, 279.0, 305.0]'
p4069
(lp4070
S'29'
p4071
aS'2.0'
p4072
asS'[72.0, 73.0, 253.0]'
p4073
(lp4074
S'29'
p4075
aS'2.0'
p4076
asS'[152.0]'
p4077
(lp4078
S'23'
p4079
aS'8.0'
p4080
asS'[73.0, 117.0, 216.0]'
p4081
(lp4082
S'27'
p4083
aS'4.0'
p4084
asS'[146.0, 150.0]'
p4085
(lp4086
S'25'
p4087
aS'6.0'
p4088
asS'[14.0, 32.0]'
p4089
(lp4090
S'29'
p4091
aS'2.0'
p4092
asS'[41.0, 102.0]'
p4093
(lp4094
S'29'
p4095
aS'2.0'
p4096
asS'[46.0, 70.0]'
p4097
(lp4098
S'19'
p4099
aS'12.0'
p4100
asS'[8.0, 122.0]'
p4101
(lp4102
S'24'
p4103
aS'7.0'
p4104
asS'[173.0]'
p4105
(lp4106
S'21'
p4107
aS'10.0'
p4108
asS'[146.0, 217.0]'
p4109
(lp4110
S'29'
p4111
aS'2.0'
p4112
asS'[72.0, 76.0, 144.0]'
p4113
(lp4114
S'28'
p4115
aS'3.0'
p4116
asS'[71.0, 73.0, 74.0, 229.0]'
p4117
(lp4118
S'28'
p4119
aS'3.0'
p4120
asS'[217.0, 242.0]'
p4121
(lp4122
S'13'
p4123
aS'18.0'
p4124
asS'[149.0, 306.0]'
p4125
(lp4126
S'26'
p4127
aS'5.0'
p4128
asS'[248.0, 282.0]'
p4129
(lp4130
S'27'
p4131
aS'4.0'
p4132
asS'[71.0, 73.0, 227.0]'
p4133
(lp4134
S'28'
p4135
aS'3.0'
p4136
asS'[39.0, 100.0]'
p4137
(lp4138
S'26'
p4139
aS'5.0'
p4140
asS'[71.0, 254.0, 255.0]'
p4141
(lp4142
S'29'
p4143
aS'2.0'
p4144
asS'[115.0, 123.0]'
p4145
(lp4146
S'13'
p4147
aS'18.0'
p4148
asS'[195.0, 198.0, 216.0]'
p4149
(lp4150
S'29'
p4151
aS'2.0'
p4152
asS'[239.0, 305.0]'
p4153
(lp4154
S'29'
p4155
aS'2.0'
p4156
asS'[74.0, 193.0, 216.0]'
p4157
(lp4158
S'29'
p4159
aS'2.0'
p4160
asS'[75.0, 178.0]'
p4161
(lp4162
S'29'
p4163
aS'2.0'
p4164
asS'[14.0, 28.0, 32.0]'
p4165
(lp4166
S'29'
p4167
aS'2.0'
p4168
asS'[190.0, 219.0, 305.0]'
p4169
(lp4170
S'29'
p4171
aS'2.0'
p4172
asS'[57.0, 83.0, 113.0]'
p4173
(lp4174
S'29'
p4175
aS'2.0'
p4176
asS'[32.0]'
p4177
(lp4178
S'28'
p4179
aS'3.0'
p4180
asS'[60.0]'
p4181
(lp4182
S'15'
p4183
aS'16.0'
p4184
asS'[73.0, 198.0, 216.0]'
p4185
(lp4186
S'29'
p4187
aS'2.0'
p4188
asS'[279.0, 305.0]'
p4189
(lp4190
S'28'
p4191
aS'3.0'
p4192
asS'[72.0, 186.0, 188.0]'
p4193
(lp4194
S'29'
p4195
aS'2.0'
p4196
asS'[99.0, 143.0]'
p4197
(lp4198
g442
aS'27.0'
p4199
asS'[256.0]'
p4200
(lp4201
S'16'
p4202
aS'15.0'
p4203
asS'[18.0, 78.0]'
p4204
(lp4205
S'27'
p4206
aS'4.0'
p4207
asS'[112.0, 303.0]'
p4208
(lp4209
S'29'
p4210
aS'2.0'
p4211
asS'[248.0, 258.0]'
p4212
(lp4213
S'21'
p4214
aS'10.0'
p4215
asS'[217.0, 240.0]'
p4216
(lp4217
S'29'
p4218
aS'2.0'
p4219
asS'[196.0, 218.0]'
p4220
(lp4221
S'24'
p4222
aS'7.0'
p4223
asS'[73.0, 76.0]'
p4224
(lp4225
S'28'
p4226
aS'3.0'
p4227
asS'[110.0, 142.0]'
p4228
(lp4229
S'29'
p4230
aS'2.0'
p4231
asS'[46.0, 119.0, 159.0]'
p4232
(lp4233
S'25'
p4234
aS'6.0'
p4235
asS'[73.0, 74.0]'
p4236
(lp4237
S'27'
p4238
aS'4.0'
p4239
asS'[4.0, 16.0]'
p4240
(lp4241
S'28'
p4242
aS'3.0'
p4243
asS'[48.0]'
p4244
(lp4245
S'25'
p4246
aS'6.0'
p4247
asS'[56.0, 136.0]'
p4248
(lp4249
S'27'
p4250
aS'4.0'
p4251
asS'[37.0, 108.0]'
p4252
(lp4253
S'28'
p4254
aS'3.0'
p4255
asS'[116.0, 127.0]'
p4256
(lp4257
S'28'
p4258
aS'3.0'
p4259
asS'[149.0, 193.0, 216.0]'
p4260
(lp4261
S'28'
p4262
aS'3.0'
p4263
asS'[34.0, 100.0]'
p4264
(lp4265
S'29'
p4266
aS'2.0'
p4267
asS'[70.0, 92.0, 114.0]'
p4268
(lp4269
S'28'
p4270
aS'3.0'
p4271
asS'[168.0, 270.0]'
p4272
(lp4273
S'19'
p4274
aS'12.0'
p4275
asS'[41.0, 94.0]'
p4276
(lp4277
S'21'
p4278
aS'10.0'
p4279
asS'[72.0, 252.0, 253.0]'
p4280
(lp4281
S'27'
p4282
aS'4.0'
p4283
asS'[217.0, 266.0]'
p4284
(lp4285
S'28'
p4286
aS'3.0'
p4287
asS'[247.0, 270.0, 271.0]'
p4288
(lp4289
S'29'
p4290
aS'2.0'
p4291
asS'[72.0, 76.0, 150.0]'
p4292
(lp4293
S'29'
p4294
aS'2.0'
p4295
asS'[6.0, 12.0]'
p4296
(lp4297
S'29'
p4298
aS'2.0'
p4299
asS'[264.0]'
p4300
(lp4301
S'22'
p4302
aS'9.0'
p4303
asS'[60.0, 86.0]'
p4304
(lp4305
S'22'
p4306
aS'9.0'
p4307
asS'[158.0, 200.0]'
p4308
(lp4309
S'22'
p4310
aS'9.0'
p4311
asS'[52.0, 62.0, 178.0]'
p4312
(lp4313
S'29'
p4314
aS'2.0'
p4315
asS'[246.0, 270.0, 278.0]'
p4316
(lp4317
S'26'
p4318
aS'5.0'
p4319
asS'[254.0]'
p4320
(lp4321
S'22'
p4322
aS'9.0'
p4323
asS'[95.0, 140.0]'
p4324
(lp4325
S'21'
p4326
aS'10.0'
p4327
asS'[71.0, 73.0, 229.0]'
p4328
(lp4329
S'28'
p4330
aS'3.0'
p4331
asS'[72.0, 78.0, 253.0]'
p4332
(lp4333
S'28'
p4334
aS'3.0'
p4335
asS'[4.0, 171.0]'
p4336
(lp4337
S'28'
p4338
aS'3.0'
p4339
asS'[52.0, 77.0, 141.0]'
p4340
(lp4341
S'29'
p4342
aS'2.0'
p4343
asS'[46.0, 57.0]'
p4344
(lp4345
S'23'
p4346
aS'8.0'
p4347
asS'[10.0, 122.0]'
p4348
(lp4349
S'28'
p4350
aS'3.0'
p4351
asS'[3.0, 23.0]'
p4352
(lp4353
S'28'
p4354
aS'3.0'
p4355
asS'[79.0, 80.0, 119.0]'
p4356
(lp4357
S'29'
p4358
aS'2.0'
p4359
asS'[72.0, 78.0, 150.0]'
p4360
(lp4361
S'29'
p4362
aS'2.0'
p4363
asS'[37.0, 102.0]'
p4364
(lp4365
S'27'
p4366
aS'4.0'
p4367
asS'[72.0, 186.0]'
p4368
(lp4369
S'29'
p4370
aS'2.0'
p4371
asS'[72.0, 73.0, 145.0, 192.0]'
p4372
(lp4373
S'29'
p4374
aS'2.0'
p4375
asS'[148.0, 218.0]'
p4376
(lp4377
S'19'
p4378
aS'12.0'
p4379
asS'[71.0, 179.0, 216.0]'
p4380
(lp4381
S'29'
p4382
aS'2.0'
p4383
asS'[73.0, 216.0]'
p4384
(lp4385
S'26'
p4386
aS'5.0'
p4387
asS'[76.0, 149.0]'
p4388
(lp4389
S'22'
p4390
aS'9.0'
p4391
asS'[73.0, 193.0, 306.0]'
p4392
(lp4393
S'27'
p4394
aS'4.0'
p4395
asS'[33.0, 136.0]'
p4396
(lp4397
S'29'
p4398
aS'2.0'
p4399
asS'[155.0, 306.0]'
p4400
(lp4401
S'28'
p4402
aS'3.0'
p4403
asS'[40.0, 118.0]'
p4404
(lp4405
S'28'
p4406
aS'3.0'
p4407
asS'[22.0, 27.0]'
p4408
(lp4409
S'27'
p4410
aS'4.0'
p4411
asS'[75.0, 203.0]'
p4412
(lp4413
S'28'
p4414
aS'3.0'
p4415
asS'[77.0, 240.0]'
p4416
(lp4417
S'29'
p4418
aS'2.0'
p4419
asS'[16.0, 28.0, 32.0]'
p4420
(lp4421
S'29'
p4422
aS'2.0'
p4423
asS'[47.0, 81.0]'
p4424
(lp4425
S'29'
p4426
aS'2.0'
p4427
asS'[302.0, 306.0]'
p4428
(lp4429
S'27'
p4430
aS'4.0'
p4431
asS'[87.0, 110.0]'
p4432
(lp4433
S'29'
p4434
aS'2.0'
p4435
asS'[4.0, 93.0]'
p4436
(lp4437
g279
aS'25.0'
p4438
asS'[143.0, 173.0]'
p4439
(lp4440
S'21'
p4441
aS'10.0'
p4442
asS'[157.0, 193.0]'
p4443
(lp4444
S'27'
p4445
aS'4.0'
p4446
asS'[178.0]'
p4447
(lp4448
g183
aS'61.0'
p4449
asS'[217.0, 260.0]'
p4450
(lp4451
S'27'
p4452
aS'4.0'
p4453
asS'[72.0, 76.0, 78.0, 150.0]'
p4454
(lp4455
S'29'
p4456
aS'2.0'
p4457
asS'[79.0, 168.0, 221.0]'
p4458
(lp4459
S'29'
p4460
aS'2.0'
p4461
asS'[217.0, 241.0]'
p4462
(lp4463
S'29'
p4464
aS'2.0'
p4465
asS'[101.0, 122.0, 305.0]'
p4466
(lp4467
S'26'
p4468
aS'5.0'
p4469
asS'[98.0, 142.0]'
p4470
(lp4471
S'29'
p4472
aS'2.0'
p4473
asS'[73.0, 76.0, 228.0]'
p4474
(lp4475
S'28'
p4476
aS'3.0'
p4477
asS'[149.0, 206.0, 220.0]'
p4478
(lp4479
S'29'
p4480
aS'2.0'
p4481
asS'[270.0, 279.0, 305.0]'
p4482
(lp4483
S'29'
p4484
aS'2.0'
p4485
asS'[266.0, 305.0]'
p4486
(lp4487
S'29'
p4488
aS'2.0'
p4489
asS'[95.0, 177.0]'
p4490
(lp4491
S'26'
p4492
aS'5.0'
p4493
asS'[76.0, 216.0]'
p4494
(lp4495
S'28'
p4496
aS'3.0'
p4497
asS'[180.0, 212.0]'
p4498
(lp4499
S'29'
p4500
aS'2.0'
p4501
asS'[8.0, 101.0, 122.0]'
p4502
(lp4503
S'25'
p4504
aS'6.0'
p4505
asS'[169.0, 234.0, 305.0]'
p4506
(lp4507
S'27'
p4508
aS'4.0'
p4509
asS'[198.0, 212.0]'
p4510
(lp4511
S'29'
p4512
aS'2.0'
p4513
asS'[56.0, 119.0]'
p4514
(lp4515
S'29'
p4516
aS'2.0'
p4517
asS'[276.0]'
p4518
(lp4519
S'11'
p4520
aS'22.0'
p4521
asS'[34.0]'
p4522
(lp4523
S'21'
p4524
aS'10.0'
p4525
asS'[71.0, 208.0]'
p4526
(lp4527
S'29'
p4528
aS'2.0'
p4529
asS'[75.0, 150.0]'
p4530
(lp4531
S'26'
p4532
aS'5.0'
p4533
asS'[82.0, 173.0, 218.0]'
p4534
(lp4535
S'29'
p4536
aS'2.0'
p4537
asS'[109.0, 141.0]'
p4538
(lp4539
g560
aS'24.0'
p4540
asS'[21.0, 45.0]'
p4541
(lp4542
S'28'
p4543
aS'3.0'
p4544
asS'[78.0, 146.0]'
p4545
(lp4546
S'29'
p4547
aS'2.0'
p4548
asS'[274.0]'
p4549
(lp4550
g195
aS'29.0'
p4551
asS'[209.0]'
p4552
(lp4553
S'28'
p4554
aS'3.0'
p4555
asS'[155.0, 198.0, 216.0]'
p4556
(lp4557
S'29'
p4558
aS'2.0'
p4559
asS'[58.0, 109.0]'
p4560
(lp4561
S'27'
p4562
aS'4.0'
p4563
asS'[45.0, 89.0]'
p4564
(lp4565
S'25'
p4566
aS'6.0'
p4567
asS'[126.0, 158.0]'
p4568
(lp4569
S'29'
p4570
aS'2.0'
p4571
asS'[187.0, 205.0]'
p4572
(lp4573
S'17'
p4574
aS'14.0'
p4575
asS'[236.0, 305.0]'
p4576
(lp4577
S'28'
p4578
aS'3.0'
p4579
asS'[4.0, 77.0]'
p4580
(lp4581
S'29'
p4582
aS'2.0'
p4583
asS'[123.0, 199.0]'
p4584
(lp4585
S'29'
p4586
aS'2.0'
p4587
asS'[186.0, 274.0]'
p4588
(lp4589
g195
aS'29.0'
p4590
asS'[96.0, 156.0]'
p4591
(lp4592
S'29'
p4593
aS'2.0'
p4594
asS'[117.0, 221.0]'
p4595
(lp4596
S'27'
p4597
aS'4.0'
p4598
asS'[74.0, 156.0, 192.0]'
p4599
(lp4600
S'29'
p4601
aS'2.0'
p4602
asS'[198.0, 205.0]'
p4603
(lp4604
S'16'
p4605
aS'15.0'
p4606
asS'[52.0, 178.0]'
p4607
(lp4608
S'29'
p4609
aS'2.0'
p4610
asS'[51.0, 71.0, 73.0]'
p4611
(lp4612
S'28'
p4613
aS'3.0'
p4614
asS'[70.0, 118.0]'
p4615
(lp4616
S'28'
p4617
aS'3.0'
p4618
asS'[22.0, 24.0, 118.0]'
p4619
(lp4620
S'29'
p4621
aS'2.0'
p4622
asS'[246.0, 254.0]'
p4623
(lp4624
S'22'
p4625
aS'9.0'
p4626
asS'[69.0]'
p4627
(lp4628
S'23'
p4629
aS'8.0'
p4630
asS'[96.0, 157.0, 178.0]'
p4631
(lp4632
S'29'
p4633
aS'2.0'
p4634
asS'[109.0]'
p4635
(lp4636
g560
aS'24.0'
p4637
asS'[73.0, 74.0, 185.0]'
p4638
(lp4639
S'29'
p4640
aS'2.0'
p4641
asS'[74.0, 216.0]'
p4642
(lp4643
S'28'
p4644
aS'3.0'
p4645
asS'[72.0, 73.0, 145.0]'
p4646
(lp4647
S'29'
p4648
aS'2.0'
p4649
asS'[55.0, 113.0]'
p4650
(lp4651
S'29'
p4652
aS'2.0'
p4653
asS'[239.0]'
p4654
(lp4655
S'17'
p4656
aS'14.0'
p4657
asS'[72.0, 78.0, 240.0]'
p4658
(lp4659
S'29'
p4660
aS'2.0'
p4661
asS'[73.0, 117.0]'
p4662
(lp4663
S'27'
p4664
aS'4.0'
p4665
asS'[8.0, 44.0]'
p4666
(lp4667
S'28'
p4668
aS'3.0'
p4669
asS'[107.0, 120.0]'
p4670
(lp4671
S'27'
p4672
aS'4.0'
p4673
asS'[99.0]'
p4674
(lp4675
g442
aS'27.0'
p4676
asS'[274.0, 305.0]'
p4677
(lp4678
S'29'
p4679
aS'2.0'
p4680
asS'[94.0, 108.0]'
p4681
(lp4682
S'28'
p4683
aS'3.0'
p4684
asS'[8.0, 102.0]'
p4685
(lp4686
S'29'
p4687
aS'2.0'
p4688
asS'[75.0, 76.0, 252.0]'
p4689
(lp4690
S'29'
p4691
aS'2.0'
p4692
asS'[1.0, 77.0]'
p4693
(lp4694
S'29'
p4695
aS'2.0'
p4696
asS'[229.0, 305.0]'
p4697
(lp4698
S'28'
p4699
aS'3.0'
p4700
asS'[66.0, 112.0, 178.0]'
p4701
(lp4702
S'29'
p4703
aS'2.0'
p4704
asS'[72.0, 182.0]'
p4705
(lp4706
S'24'
p4707
aS'7.0'
p4708
asS'[143.0, 144.0, 174.0]'
p4709
(lp4710
S'29'
p4711
aS'2.0'
p4712
asS'[156.0]'
p4713
(lp4714
S'24'
p4715
aS'7.0'
p4716
asS'[123.0, 158.0]'
p4717
(lp4718
S'29'
p4719
aS'2.0'
p4720
asS'[149.0, 217.0]'
p4721
(lp4722
S'29'
p4723
aS'2.0'
p4724
asS'[73.0, 117.0, 217.0]'
p4725
(lp4726
S'28'
p4727
aS'3.0'
p4728
asS'[178.0, 269.0, 270.0]'
p4729
(lp4730
S'29'
p4731
aS'2.0'
p4732
asS'[78.0, 164.0]'
p4733
(lp4734
S'27'
p4735
aS'4.0'
p4736
asS'[77.0, 234.0]'
p4737
(lp4738
S'21'
p4739
aS'10.0'
p4740
asS'[36.0]'
p4741
(lp4742
S'17'
p4743
aS'14.0'
p4744
asS'[71.0, 229.0]'
p4745
(lp4746
S'23'
p4747
aS'8.0'
p4748
asS'[78.0, 169.0, 226.0]'
p4749
(lp4750
S'29'
p4751
aS'2.0'
p4752
asS'[128.0]'
p4753
(lp4754
S'16'
p4755
aS'15.0'
p4756
asS'[244.0, 282.0]'
p4757
(lp4758
S'25'
p4759
aS'6.0'
p4760
asS'[41.0, 161.0]'
p4761
(lp4762
S'29'
p4763
aS'2.0'
p4764
asS'[195.0]'
p4765
(lp4766
S'26'
p4767
aS'5.0'
p4768
asS'[8.0, 101.0, 122.0, 305.0]'
p4769
(lp4770
S'28'
p4771
aS'3.0'
p4772
asS'[78.0, 149.0, 217.0, 218.0]'
p4773
(lp4774
S'29'
p4775
aS'2.0'
p4776
asS'[81.0, 161.0]'
p4777
(lp4778
S'21'
p4779
aS'10.0'
p4780
asS'[16.0, 90.0, 118.0]'
p4781
(lp4782
S'26'
p4783
aS'5.0'
p4784
asS'[75.0, 76.0, 251.0]'
p4785
(lp4786
S'29'
p4787
aS'2.0'
p4788
asS'[69.0, 77.0, 198.0]'
p4789
(lp4790
S'29'
p4791
aS'2.0'
p4792
asS'[147.0, 272.0]'
p4793
(lp4794
g195
aS'29.0'
p4795
asS'[157.0]'
p4796
(lp4797
S'21'
p4798
aS'10.0'
p4799
asS'[48.0, 110.0]'
p4800
(lp4801
S'28'
p4802
aS'3.0'
p4803
asS'[89.0, 107.0]'
p4804
(lp4805
S'28'
p4806
aS'3.0'
p4807
asS'[293.0, 305.0]'
p4808
(lp4809
S'22'
p4810
aS'9.0'
p4811
asS'[62.0, 72.0, 74.0]'
p4812
(lp4813
S'29'
p4814
aS'2.0'
p4815
asS'[37.0, 108.0, 121.0]'
p4816
(lp4817
S'29'
p4818
aS'2.0'
p4819
asS'[77.0, 184.0]'
p4820
(lp4821
S'28'
p4822
aS'3.0'
p4823
asS'[155.0, 166.0, 198.0]'
p4824
(lp4825
S'29'
p4826
aS'2.0'
p4827
asS'[75.0, 154.0]'
p4828
(lp4829
S'29'
p4830
aS'2.0'
p4831
asS'[73.0, 192.0]'
p4832
(lp4833
S'28'
p4834
aS'3.0'
p4835
asS'[6.0, 12.0, 24.0]'
p4836
(lp4837
S'29'
p4838
aS'2.0'
p4839
asS'[229.0, 236.0]'
p4840
(lp4841
S'29'
p4842
aS'2.0'
p4843
asS'[238.0, 281.0, 305.0]'
p4844
(lp4845
S'29'
p4846
aS'2.0'
p4847
asS'[249.0, 258.0]'
p4848
(lp4849
S'29'
p4850
aS'2.0'
p4851
asS'[77.0, 236.0]'
p4852
(lp4853
S'29'
p4854
aS'2.0'
p4855
asS'[89.0, 100.0, 121.0]'
p4856
(lp4857
S'29'
p4858
aS'2.0'
p4859
asS'[76.0, 217.0]'
p4860
(lp4861
S'10'
p4862
aS'23.0'
p4863
asS'[13.0, 93.0]'
p4864
(lp4865
S'28'
p4866
aS'3.0'
p4867
asS'[9.0, 37.0]'
p4868
(lp4869
S'23'
p4870
aS'8.0'
p4871
asS'[89.0, 97.0, 101.0]'
p4872
(lp4873
S'29'
p4874
aS'2.0'
p4875
asS'[55.0, 119.0, 158.0]'
p4876
(lp4877
S'29'
p4878
aS'2.0'
p4879
asS'[149.0, 215.0, 218.0]'
p4880
(lp4881
S'29'
p4882
aS'2.0'
p4883
asS'[67.0, 160.0]'
p4884
(lp4885
S'13'
p4886
aS'18.0'
p4887
asS'[66.0]'
p4888
(lp4889
g195
aS'29.0'
p4890
asS'[155.0]'
p4891
(lp4892
S'16'
p4893
aS'15.0'
p4894
asS'[75.0, 79.0, 111.0]'
p4895
(lp4896
S'29'
p4897
aS'2.0'
p4898
asS'[138.0]'
p4899
(lp4900
S'20'
p4901
aS'11.0'
p4902
asS'[242.0]'
p4903
(lp4904
S'13'
p4905
aS'18.0'
p4906
asS'[190.0, 219.0]'
p4907
(lp4908
S'29'
p4909
aS'2.0'
p4910
asS'[98.0, 102.0]'
p4911
(lp4912
S'29'
p4913
aS'2.0'
p4914
asS'[195.0, 210.0]'
p4915
(lp4916
S'28'
p4917
aS'3.0'
p4918
asS'[90.0, 98.0]'
p4919
(lp4920
S'21'
p4921
aS'10.0'
p4922
asS'[159.0]'
p4923
(lp4924
S'21'
p4925
aS'10.0'
p4926
asS'[71.0, 93.0]'
p4927
(lp4928
S'29'
p4929
aS'2.0'
p4930
asS'[52.0]'
p4931
(lp4932
S'22'
p4933
aS'9.0'
p4934
asS'[21.0, 47.0]'
p4935
(lp4936
S'27'
p4937
aS'4.0'
p4938
asS'[73.0, 74.0, 216.0]'
p4939
(lp4940
S'28'
p4941
aS'3.0'
p4942
asS'[71.0, 77.0, 253.0]'
p4943
(lp4944
S'29'
p4945
aS'2.0'
p4946
asS'[256.0, 279.0]'
p4947
(lp4948
S'24'
p4949
aS'7.0'
p4950
asS'[52.0, 77.0]'
p4951
(lp4952
S'22'
p4953
aS'9.0'
p4954
asS'[71.0, 185.0]'
p4955
(lp4956
S'29'
p4957
aS'2.0'
p4958
asS'[98.0, 100.0]'
p4959
(lp4960
S'27'
p4961
aS'4.0'
p4962
asS'[240.0]'
p4963
(lp4964
g195
aS'29.0'
p4965
asS'[72.0, 253.0]'
p4966
(lp4967
S'27'
p4968
aS'4.0'
p4969
asS'[76.0, 78.0]'
p4970
(lp4971
S'27'
p4972
aS'4.0'
p4973
asS'[243.0, 248.0]'
p4974
(lp4975
S'28'
p4976
aS'3.0'
p4977
asS'[62.0, 75.0]'
p4978
(lp4979
S'28'
p4980
aS'3.0'
p4981
asS'[71.0, 87.0]'
p4982
(lp4983
S'12'
p4984
aS'19.0'
p4985
asS'[153.0, 167.0]'
p4986
(lp4987
S'20'
p4988
aS'11.0'
p4989
asS'[254.0, 305.0]'
p4990
(lp4991
S'28'
p4992
aS'3.0'
p4993
asS'[219.0, 224.0]'
p4994
(lp4995
S'29'
p4996
aS'2.0'
p4997
asS'[90.0, 92.0, 114.0]'
p4998
(lp4999
S'24'
p5000
aS'7.0'
p5001
asS'[76.0, 219.0]'
p5002
(lp5003
S'28'
p5004
aS'3.0'
p5005
asS'[174.0, 218.0]'
p5006
(lp5007
S'16'
p5008
aS'15.0'
p5009
asS'[55.0, 63.0, 113.0]'
p5010
(lp5011
S'29'
p5012
aS'2.0'
p5013
asS'[90.0, 107.0]'
p5014
(lp5015
S'29'
p5016
aS'2.0'
p5017
asS'[75.0, 163.0]'
p5018
(lp5019
S'18'
p5020
aS'13.0'
p5021
asS'[75.0, 76.0, 149.0]'
p5022
(lp5023
S'29'
p5024
aS'2.0'
p5025
asS'[153.0, 168.0, 234.0]'
p5026
(lp5027
S'27'
p5028
aS'4.0'
p5029
asS'[108.0]'
p5030
(lp5031
S'24'
p5032
aS'7.0'
p5033
asS'[81.0, 203.0]'
p5034
(lp5035
S'28'
p5036
aS'3.0'
p5037
asS'[92.0, 139.0]'
p5038
(lp5039
S'26'
p5040
aS'5.0'
p5041
asS'[5.0, 7.0]'
p5042
(lp5043
S'27'
p5044
aS'4.0'
p5045
asS'[102.0]'
p5046
(lp5047
g1197
aS'44.0'
p5048
asS'[30.0]'
p5049
(lp5050
g1197
aS'44.0'
p5051
asS'[173.0, 219.0]'
p5052
(lp5053
S'24'
p5054
aS'7.0'
p5055
asS'[216.0, 261.0]'
p5056
(lp5057
g2012
aS'70.0'
p5058
asS'[244.0, 305.0]'
p5059
(lp5060
S'28'
p5061
aS'3.0'
p5062
asS'[195.0, 203.0, 223.0]'
p5063
(lp5064
S'29'
p5065
aS'2.0'
p5066
asS'[232.0, 238.0]'
p5067
(lp5068
S'15'
p5069
aS'16.0'
p5070
asS'[8.0, 99.0]'
p5071
(lp5072
S'27'
p5073
aS'4.0'
p5074
asS'[197.0]'
p5075
(lp5076
S'18'
p5077
aS'13.0'
p5078
asS'[118.0, 144.0]'
p5079
(lp5080
S'29'
p5081
aS'2.0'
p5082
asS'[72.0, 76.0]'
p5083
(lp5084
S'28'
p5085
aS'3.0'
p5086
asS'[151.0, 153.0]'
p5087
(lp5088
S'29'
p5089
aS'2.0'
p5090
asS'[177.0, 237.0]'
p5091
(lp5092
S'27'
p5093
aS'4.0'
p5094
asS'[216.0, 263.0]'
p5095
(lp5096
S'23'
p5097
aS'8.0'
p5098
asS'[149.0, 215.0]'
p5099
(lp5100
S'29'
p5101
aS'2.0'
p5102
asS'[138.0, 213.0]'
p5103
(lp5104
S'28'
p5105
aS'3.0'
p5106
asS'[161.0, 202.0]'
p5107
(lp5108
S'27'
p5109
aS'4.0'
p5110
asS'[57.0, 109.0]'
p5111
(lp5112
S'29'
p5113
aS'2.0'
p5114
asS'[50.0]'
p5115
(lp5116
S'20'
p5117
aS'11.0'
p5118
asS'[216.0, 265.0]'
p5119
(lp5120
S'25'
p5121
aS'6.0'
p5122
asS'[195.0, 216.0]'
p5123
(lp5124
S'26'
p5125
aS'5.0'
p5126
asS'[103.0, 140.0]'
p5127
(lp5128
S'28'
p5129
aS'3.0'
p5130
asS'[72.0, 76.0, 188.0]'
p5131
(lp5132
S'29'
p5133
aS'2.0'
p5134
asS'[46.0, 56.0, 119.0]'
p5135
(lp5136
S'29'
p5137
aS'2.0'
p5138
asS'[79.0, 80.0, 82.0]'
p5139
(lp5140
S'24'
p5141
aS'7.0'
p5142
asS'[199.0, 305.0]'
p5143
(lp5144
S'28'
p5145
aS'3.0'
p5146
asS'[117.0, 153.0]'
p5147
(lp5148
S'24'
p5149
aS'7.0'
p5150
asS'[73.0, 193.0]'
p5151
(lp5152
S'18'
p5153
aS'13.0'
p5154
asS'[90.0, 101.0]'
p5155
(lp5156
S'25'
p5157
aS'6.0'
p5158
asS'[38.0, 101.0, 122.0]'
p5159
(lp5160
S'27'
p5161
aS'4.0'
p5162
asS'[62.0, 75.0, 178.0]'
p5163
(lp5164
S'29'
p5165
aS'2.0'
p5166
asS'[82.0, 112.0]'
p5167
(lp5168
S'16'
p5169
aS'15.0'
p5170
asS'[75.0, 77.0, 234.0]'
p5171
(lp5172
S'28'
p5173
aS'3.0'
p5174
asS'[48.0, 76.0, 216.0]'
p5175
(lp5176
S'29'
p5177
aS'2.0'
p5178
asS'[244.0]'
p5179
(lp5180
S'16'
p5181
aS'15.0'
p5182
asS'[39.0, 47.0]'
p5183
(lp5184
S'26'
p5185
aS'5.0'
p5186
asS'[57.0, 63.0, 87.0]'
p5187
(lp5188
S'28'
p5189
aS'3.0'
p5190
asS'[77.0, 169.0, 234.0]'
p5191
(lp5192
S'27'
p5193
aS'4.0'
p5194
asS'[75.0, 161.0, 178.0]'
p5195
(lp5196
S'29'
p5197
aS'2.0'
p5198
asS'[95.0, 127.0]'
p5199
(lp5200
S'24'
p5201
aS'7.0'
p5202
asS'[16.0, 28.0]'
p5203
(lp5204
S'26'
p5205
aS'5.0'
p5206
asS'[74.0, 96.0, 157.0]'
p5207
(lp5208
S'29'
p5209
aS'2.0'
p5210
asS'[90.0, 131.0]'
p5211
(lp5212
S'26'
p5213
aS'5.0'
p5214
asS'[73.0, 74.0, 229.0]'
p5215
(lp5216
S'27'
p5217
aS'4.0'
p5218
asS'[13.0, 28.0]'
p5219
(lp5220
S'28'
p5221
aS'3.0'
p5222
asS'[227.0, 235.0, 305.0]'
p5223
(lp5224
S'29'
p5225
aS'2.0'
p5226
asS'[8.0]'
p5227
(lp5228
S'11'
p5229
aS'22.0'
p5230
asS'[75.0, 76.0, 200.0]'
p5231
(lp5232
S'29'
p5233
aS'2.0'
p5234
asS'[159.0, 202.0]'
p5235
(lp5236
S'24'
p5237
aS'7.0'
p5238
asS'[72.0, 74.0]'
p5239
(lp5240
S'19'
p5241
aS'12.0'
p5242
asS'[141.0, 155.0]'
p5243
(lp5244
S'16'
p5245
aS'15.0'
p5246
asS'[267.0]'
p5247
(lp5248
S'16'
p5249
aS'15.0'
p5250
asS'[246.0]'
p5251
(lp5252
g195
aS'29.0'
p5253
asS'[75.0, 223.0]'
p5254
(lp5255
S'28'
p5256
aS'3.0'
p5257
asS'[48.0, 62.0, 110.0]'
p5258
(lp5259
S'28'
p5260
aS'3.0'
p5261
asS'[23.0, 31.0]'
p5262
(lp5263
S'21'
p5264
aS'10.0'
p5265
asS'[76.0, 78.0, 216.0]'
p5266
(lp5267
S'28'
p5268
aS'3.0'
p5269
asS'[3.0, 21.0, 23.0]'
p5270
(lp5271
S'28'
p5272
aS'3.0'
p5273
asS'[77.0, 91.0]'
p5274
(lp5275
S'26'
p5276
aS'5.0'
p5277
asS'[72.0, 73.0, 192.0]'
p5278
(lp5279
S'29'
p5280
aS'2.0'
p5281
asS'[10.0, 22.0, 24.0]'
p5282
(lp5283
S'29'
p5284
aS'2.0'
p5285
asS'[106.0]'
p5286
(lp5287
S'28'
p5288
aS'3.0'
p5289
asS'[44.0, 74.0]'
p5290
(lp5291
S'24'
p5292
aS'7.0'
p5293
asS'[72.0, 249.0]'
p5294
(lp5295
S'29'
p5296
aS'2.0'
p5297
asS'[104.0]'
p5298
(lp5299
S'24'
p5300
aS'7.0'
p5301
asS'[49.0, 83.0, 113.0]'
p5302
(lp5303
S'29'
p5304
aS'2.0'
p5305
asS'[71.0, 149.0, 216.0]'
p5306
(lp5307
S'29'
p5308
aS'2.0'
p5309
asS'[218.0, 269.0, 270.0, 277.0]'
p5310
(lp5311
S'29'
p5312
aS'2.0'
p5313
asS'[73.0, 74.0, 192.0]'
p5314
(lp5315
S'29'
p5316
aS'2.0'
p5317
asS'[171.0]'
p5318
(lp5319
S'23'
p5320
aS'8.0'
p5321
asS'[71.0, 77.0, 236.0]'
p5322
(lp5323
S'29'
p5324
aS'2.0'
p5325
asS'[4.0, 22.0]'
p5326
(lp5327
S'27'
p5328
aS'4.0'
p5329
asS'[55.0, 63.0]'
p5330
(lp5331
S'29'
p5332
aS'2.0'
p5333
asS'[205.0]'
p5334
(lp5335
S'15'
p5336
aS'16.0'
p5337
asS'[95.0, 99.0, 305.0]'
p5338
(lp5339
S'28'
p5340
aS'3.0'
p5341
asS'[160.0, 170.0]'
p5342
(lp5343
S'27'
p5344
aS'4.0'
p5345
asS'[71.0, 146.0]'
p5346
(lp5347
S'29'
p5348
aS'2.0'
p5349
asS'[30.0, 102.0]'
p5350
(lp5351
g1197
aS'44.0'
p5352
asS'[51.0, 55.0]'
p5353
(lp5354
S'29'
p5355
aS'2.0'
p5356
asS'[157.0, 178.0]'
p5357
(lp5358
S'29'
p5359
aS'2.0'
p5360
asS'[71.0, 254.0]'
p5361
(lp5362
S'26'
p5363
aS'5.0'
p5364
asS'[8.0, 102.0, 305.0]'
p5365
(lp5366
S'29'
p5367
aS'2.0'
p5368
asS'[76.0, 91.0, 200.0]'
p5369
(lp5370
S'27'
p5371
aS'4.0'
p5372
asS'[206.0, 220.0]'
p5373
(lp5374
S'23'
p5375
aS'8.0'
p5376
asS'[151.0, 226.0]'
p5377
(lp5378
S'27'
p5379
aS'4.0'
p5380
asS'[57.0, 88.0]'
p5381
(lp5382
S'23'
p5383
aS'8.0'
p5384
asS'[76.0, 186.0]'
p5385
(lp5386
S'26'
p5387
aS'5.0'
p5388
asS'[306.0]'
p5389
(lp5390
g195
aS'29.0'
p5391
asS'[75.0, 76.0, 155.0]'
p5392
(lp5393
S'29'
p5394
aS'2.0'
p5395
asS'[51.0, 57.0]'
p5396
(lp5397
S'29'
p5398
aS'2.0'
p5399
asS'[76.0, 145.0]'
p5400
(lp5401
S'22'
p5402
aS'9.0'
p5403
asS'[145.0, 192.0]'
p5404
(lp5405
S'25'
p5406
aS'6.0'
p5407
asS'[80.0, 205.0]'
p5408
(lp5409
S'29'
p5410
aS'2.0'
p5411
asS'[302.0]'
p5412
(lp5413
S'27'
p5414
aS'4.0'
p5415
asS'[62.0, 74.0, 193.0]'
p5416
(lp5417
S'29'
p5418
aS'2.0'
p5419
asS'[117.0, 153.0, 270.0]'
p5420
(lp5421
S'29'
p5422
aS'2.0'
p5423
asS'[52.0, 85.0]'
p5424
(lp5425
S'25'
p5426
aS'6.0'
p5427
asS'[138.0, 198.0]'
p5428
(lp5429
S'28'
p5430
aS'3.0'
p5431
asS'[177.0]'
p5432
(lp5433
S'15'
p5434
aS'16.0'
p5435
asS'[13.0, 99.0, 143.0]'
p5436
(lp5437
S'24'
p5438
aS'7.0'
p5439
asS'[3.0, 21.0]'
p5440
(lp5441
S'26'
p5442
aS'5.0'
p5443
asS'[79.0, 96.0, 193.0]'
p5444
(lp5445
S'29'
p5446
aS'2.0'
p5447
asS'[237.0, 247.0]'
p5448
(lp5449
S'25'
p5450
aS'6.0'
p5451
asS'[79.0, 111.0, 148.0]'
p5452
(lp5453
S'29'
p5454
aS'2.0'
p5455
asS'[116.0, 199.0]'
p5456
(lp5457
S'19'
p5458
aS'12.0'
p5459
asS'[55.0, 158.0]'
p5460
(lp5461
S'28'
p5462
aS'3.0'
p5463
asS'[97.0]'
p5464
(lp5465
S'11'
p5466
aS'22.0'
p5467
asS'[52.0, 87.0]'
p5468
(lp5469
S'27'
p5470
aS'4.0'
p5471
asS'[179.0, 180.0, 258.0]'
p5472
(lp5473
S'29'
p5474
aS'2.0'
p5475
asS'[73.0, 200.0]'
p5476
(lp5477
S'25'
p5478
aS'6.0'
p5479
asS'[90.0, 98.0, 131.0]'
p5480
(lp5481
S'26'
p5482
aS'5.0'
p5483
asS'[260.0]'
p5484
(lp5485
S'22'
p5486
aS'9.0'
p5487
asS'[79.0, 148.0, 221.0]'
p5488
(lp5489
S'28'
p5490
aS'3.0'
p5491
asS'[136.0, 201.0]'
p5492
(lp5493
S'17'
p5494
aS'14.0'
p5495
asS'[30.0, 36.0, 102.0]'
p5496
(lp5497
S'29'
p5498
aS'2.0'
p5499
asS'[52.0, 139.0]'
p5500
(lp5501
S'27'
p5502
aS'4.0'
p5503
asS'[71.0, 95.0]'
p5504
(lp5505
S'29'
p5506
aS'2.0'
p5507
asS'[262.0]'
p5508
(lp5509
S'13'
p5510
aS'18.0'
p5511
asS'[300.0]'
p5512
(lp5513
S'27'
p5514
aS'4.0'
p5515
asS'[47.0, 185.0]'
p5516
(lp5517
S'25'
p5518
aS'6.0'
p5519
asS'[299.0]'
p5520
(lp5521
S'21'
p5522
aS'10.0'
p5523
asS'[76.0, 237.0]'
p5524
(lp5525
S'13'
p5526
aS'18.0'
p5527
asS'[233.0, 243.0]'
p5528
(lp5529
S'29'
p5530
aS'2.0'
p5531
asS'[96.0, 140.0]'
p5532
(lp5533
S'15'
p5534
aS'16.0'
p5535
asS'[173.0, 177.0]'
p5536
(lp5537
S'29'
p5538
aS'2.0'
p5539
asS'[117.0, 221.0, 270.0]'
p5540
(lp5541
S'28'
p5542
aS'3.0'
p5543
asS'[72.0, 73.0, 74.0, 192.0]'
p5544
(lp5545
S'29'
p5546
aS'2.0'
p5547
asS'[44.0, 78.0]'
p5548
(lp5549
S'26'
p5550
aS'5.0'
p5551
asS'[25.0, 305.0]'
p5552
(lp5553
S'29'
p5554
aS'2.0'
p5555
asS'[301.0, 306.0]'
p5556
(lp5557
S'13'
p5558
aS'18.0'
p5559
asS'[150.0, 305.0]'
p5560
(lp5561
S'24'
p5562
aS'7.0'
p5563
asS'[188.0, 189.0]'
p5564
(lp5565
S'27'
p5566
aS'4.0'
p5567
asS'[265.0]'
p5568
(lp5569
S'25'
p5570
aS'6.0'
p5571
asS'[72.0, 219.0]'
p5572
(lp5573
S'23'
p5574
aS'8.0'
p5575
asS'[57.0, 90.0]'
p5576
(lp5577
S'26'
p5578
aS'5.0'
p5579
asS'[71.0, 77.0, 252.0]'
p5580
(lp5581
S'29'
p5582
aS'2.0'
p5583
asS'[95.0]'
p5584
(lp5585
g195
aS'29.0'
p5586
asS'[57.0, 87.0]'
p5587
(lp5588
S'28'
p5589
aS'3.0'
p5590
asS'[71.0, 145.0]'
p5591
(lp5592
S'29'
p5593
aS'2.0'
p5594
asS'[298.0]'
p5595
(lp5596
S'27'
p5597
aS'4.0'
p5598
asS'[38.0, 77.0]'
p5599
(lp5600
S'27'
p5601
aS'4.0'
p5602
asS'[25.0, 92.0]'
p5603
(lp5604
S'18'
p5605
aS'13.0'
p5606
asS'[72.0, 155.0]'
p5607
(lp5608
S'28'
p5609
aS'3.0'
p5610
asS'[187.0, 275.0]'
p5611
(lp5612
S'28'
p5613
aS'3.0'
p5614
asS'[218.0, 269.0, 277.0]'
p5615
(lp5616
S'29'
p5617
aS'2.0'
p5618
asS'[73.0, 145.0]'
p5619
(lp5620
S'28'
p5621
aS'3.0'
p5622
asS'[58.0, 113.0]'
p5623
(lp5624
S'28'
p5625
aS'3.0'
p5626
asS'[175.0]'
p5627
(lp5628
S'16'
p5629
aS'15.0'
p5630
asS'[195.0, 198.0, 244.0]'
p5631
(lp5632
S'28'
p5633
aS'3.0'
p5634
asS'[39.0, 78.0]'
p5635
(lp5636
S'24'
p5637
aS'7.0'
p5638
asS'[51.0, 141.0]'
p5639
(lp5640
S'21'
p5641
aS'10.0'
p5642
asS'[46.0, 62.0, 193.0]'
p5643
(lp5644
S'29'
p5645
aS'2.0'
p5646
asS'[95.0, 107.0]'
p5647
(lp5648
S'25'
p5649
aS'6.0'
p5650
asS'[71.0, 73.0]'
p5651
(lp5652
S'28'
p5653
aS'3.0'
p5654
asS'[228.0, 276.0]'
p5655
(lp5656
S'29'
p5657
aS'2.0'
p5658
asS'[39.0, 303.0]'
p5659
(lp5660
S'19'
p5661
aS'12.0'
p5662
asS'[28.0]'
p5663
(lp5664
S'22'
p5665
aS'9.0'
p5666
asS'[101.0, 122.0]'
p5667
(lp5668
S'25'
p5669
aS'6.0'
p5670
asS'[100.0]'
p5671
(lp5672
g195
aS'29.0'
p5673
asS'[55.0, 137.0, 198.0]'
p5674
(lp5675
S'28'
p5676
aS'3.0'
p5677
asS'[199.0, 272.0, 305.0]'
p5678
(lp5679
S'28'
p5680
aS'3.0'
p5681
asS'[51.0, 88.0]'
p5682
(lp5683
S'28'
p5684
aS'3.0'
p5685
asS'[216.0, 242.0]'
p5686
(lp5687
S'26'
p5688
aS'5.0'
p5689
asS'[132.0]'
p5690
(lp5691
S'25'
p5692
aS'6.0'
p5693
asS'[72.0, 74.0, 219.0]'
p5694
(lp5695
S'23'
p5696
aS'8.0'
p5697
asS'[89.0, 108.0, 121.0]'
p5698
(lp5699
S'29'
p5700
aS'2.0'
p5701
asS'[294.0]'
p5702
(lp5703
S'26'
p5704
aS'5.0'
p5705
asS'[13.0, 143.0]'
p5706
(lp5707
S'24'
p5708
aS'7.0'
p5709
asS'[111.0, 156.0, 170.0]'
p5710
(lp5711
S'29'
p5712
aS'2.0'
p5713
asS'[51.0, 140.0]'
p5714
(lp5715
S'28'
p5716
aS'3.0'
p5717
asS'[76.0, 80.0]'
p5718
(lp5719
S'28'
p5720
aS'3.0'
p5721
asS'[52.0, 58.0]'
p5722
(lp5723
S'23'
p5724
aS'8.0'
p5725
asS'[166.0, 251.0]'
p5726
(lp5727
S'24'
p5728
aS'7.0'
p5729
asS'[166.0, 305.0]'
p5730
(lp5731
S'29'
p5732
aS'2.0'
p5733
asS'[256.0, 280.0]'
p5734
(lp5735
S'28'
p5736
aS'3.0'
p5737
asS'[187.0, 196.0]'
p5738
(lp5739
S'29'
p5740
aS'2.0'
p5741
asS'[57.0, 83.0]'
p5742
(lp5743
S'27'
p5744
aS'4.0'
p5745
asS'[93.0]'
p5746
(lp5747
g279
aS'25.0'
p5748
asS'[100.0, 160.0]'
p5749
(lp5750
S'24'
p5751
aS'7.0'
p5752
asS'[216.0, 262.0]'
p5753
(lp5754
S'13'
p5755
aS'18.0'
p5756
asS'[74.0, 86.0]'
p5757
(lp5758
g279
aS'25.0'
p5759
asS'[65.0, 67.0]'
p5760
(lp5761
S'29'
p5762
aS'2.0'
p5763
asS'[20.0, 134.0]'
p5764
(lp5765
S'29'
p5766
aS'2.0'
p5767
asS'[134.0]'
p5768
(lp5769
S'21'
p5770
aS'10.0'
p5771
asS'[203.0, 218.0, 223.0]'
p5772
(lp5773
S'29'
p5774
aS'2.0'
p5775
asS'[21.0, 23.0, 118.0]'
p5776
(lp5777
S'29'
p5778
aS'2.0'
p5779
asS'[74.0, 157.0, 216.0]'
p5780
(lp5781
S'29'
p5782
aS'2.0'
p5783
asS'[46.0, 56.0, 119.0, 159.0]'
p5784
(lp5785
S'29'
p5786
aS'2.0'
p5787
asS'[73.0, 145.0, 192.0]'
p5788
(lp5789
S'28'
p5790
aS'3.0'
p5791
asS'[178.0, 254.0, 305.0]'
p5792
(lp5793
S'29'
p5794
aS'2.0'
p5795
asS'[269.0]'
p5796
(lp5797
S'15'
p5798
aS'16.0'
p5799
asS'[249.0, 305.0]'
p5800
(lp5801
S'29'
p5802
aS'2.0'
p5803
asS'[95.0, 99.0]'
p5804
(lp5805
S'28'
p5806
aS'3.0'
p5807
asS'[76.0, 78.0, 164.0]'
p5808
(lp5809
S'27'
p5810
aS'4.0'
p5811
asS'[153.0, 252.0]'
p5812
(lp5813
S'26'
p5814
aS'5.0'
p5815
asS'[52.0, 200.0]'
p5816
(lp5817
S'23'
p5818
aS'8.0'
p5819
asS'[76.0, 254.0]'
p5820
(lp5821
S'23'
p5822
aS'8.0'
p5823
asS'[111.0, 156.0]'
p5824
(lp5825
S'29'
p5826
aS'2.0'
p5827
asS'[75.0]'
p5828
(lp5829
g2012
aS'70.0'
p5830
asS'[116.0]'
p5831
(lp5832
S'19'
p5833
aS'12.0'
p5834
asS'[248.0, 258.0, 282.0]'
p5835
(lp5836
S'28'
p5837
aS'3.0'
p5838
asS'[67.0, 111.0]'
p5839
(lp5840
S'27'
p5841
aS'4.0'
p5842
asS'[158.0, 201.0]'
p5843
(lp5844
S'28'
p5845
aS'3.0'
p5846
asS'[103.0, 198.0]'
p5847
(lp5848
S'28'
p5849
aS'3.0'
p5850
asS'[24.0, 32.0]'
p5851
(lp5852
S'29'
p5853
aS'2.0'
p5854
asS'[123.0, 305.0]'
p5855
(lp5856
S'27'
p5857
aS'4.0'
p5858
asS'[57.0, 114.0]'
p5859
(lp5860
S'29'
p5861
aS'2.0'
p5862
asS'[75.0, 178.0, 237.0]'
p5863
(lp5864
S'29'
p5865
aS'2.0'
p5866
asS'[78.0, 198.0]'
p5867
(lp5868
S'28'
p5869
aS'3.0'
p5870
asS'[72.0, 74.0, 237.0]'
p5871
(lp5872
S'29'
p5873
aS'2.0'
p5874
asS'[51.0, 57.0, 109.0]'
p5875
(lp5876
S'29'
p5877
aS'2.0'
p5878
asS'[14.0]'
p5879
(lp5880
S'22'
p5881
aS'9.0'
p5882
asS'[112.0, 161.0]'
p5883
(lp5884
S'16'
p5885
aS'15.0'
p5886
asS'[20.0, 93.0]'
p5887
(lp5888
S'21'
p5889
aS'10.0'
p5890
asS'[189.0, 191.0]'
p5891
(lp5892
S'23'
p5893
aS'8.0'
p5894
asS'[57.0, 63.0, 87.0, 113.0]'
p5895
(lp5896
S'28'
p5897
aS'3.0'
p5898
asS'[117.0, 148.0, 221.0]'
p5899
(lp5900
S'29'
p5901
aS'2.0'
p5902
asS'[73.0, 276.0]'
p5903
(lp5904
S'29'
p5905
aS'2.0'
p5906
asS'[25.0, 91.0]'
p5907
(lp5908
S'29'
p5909
aS'2.0'
p5910
asS'[207.0]'
p5911
(lp5912
S'22'
p5913
aS'9.0'
p5914
asS'[77.0]'
p5915
(lp5916
S'16'
p5917
aS'15.0'
p5918
asS'[49.0, 113.0]'
p5919
(lp5920
S'29'
p5921
aS'2.0'
p5922
asS'[269.0, 305.0]'
p5923
(lp5924
S'15'
p5925
aS'16.0'
p5926
asS'[56.0, 177.0]'
p5927
(lp5928
S'29'
p5929
aS'2.0'
p5930
asS'[71.0, 77.0, 234.0]'
p5931
(lp5932
S'28'
p5933
aS'3.0'
p5934
asS'[71.0, 74.0, 146.0]'
p5935
(lp5936
S'29'
p5937
aS'2.0'
p5938
asS'[233.0, 281.0, 305.0]'
p5939
(lp5940
S'28'
p5941
aS'3.0'
p5942
asS'[80.0]'
p5943
(lp5944
g279
aS'25.0'
p5945
asS'[117.0, 193.0, 220.0]'
p5946
(lp5947
S'27'
p5948
aS'4.0'
p5949
asS'[73.0, 117.0, 148.0]'
p5950
(lp5951
S'29'
p5952
aS'2.0'
p5953
asS'[46.0]'
p5954
(lp5955
S'16'
p5956
aS'15.0'
p5957
asS'[153.0, 268.0, 270.0]'
p5958
(lp5959
S'29'
p5960
aS'2.0'
p5961
asS'[225.0, 239.0]'
p5962
(lp5963
S'27'
p5964
aS'4.0'
p5965
asS'[7.0, 33.0, 40.0]'
p5966
(lp5967
S'27'
p5968
aS'4.0'
p5969
asS'[51.0, 199.0]'
p5970
(lp5971
S'27'
p5972
aS'4.0'
p5973
asS'[71.0, 73.0, 217.0]'
p5974
(lp5975
S'28'
p5976
aS'3.0'
p5977
asS'[117.0, 217.0, 224.0]'
p5978
(lp5979
S'29'
p5980
aS'2.0'
p5981
asS'[110.0]'
p5982
(lp5983
S'15'
p5984
aS'16.0'
p5985
asS'[62.0, 72.0, 76.0, 78.0]'
p5986
(lp5987
S'28'
p5988
aS'3.0'
p5989
asS'[100.0, 144.0]'
p5990
(lp5991
g279
aS'25.0'
p5992
asS'[3.0]'
p5993
(lp5994
S'11'
p5995
aS'22.0'
p5996
asS'[169.0, 227.0]'
p5997
(lp5998
S'28'
p5999
aS'3.0'
p6000
asS'[78.0, 276.0]'
p6001
(lp6002
S'27'
p6003
aS'4.0'
p6004
asS'[245.0, 273.0]'
p6005
(lp6006
S'29'
p6007
aS'2.0'
p6008
asS'[73.0, 117.0, 193.0, 216.0]'
p6009
(lp6010
S'28'
p6011
aS'3.0'
p6012
asS'[72.0, 93.0]'
p6013
(lp6014
S'29'
p6015
aS'2.0'
p6016
asS'[44.0]'
p6017
(lp6018
S'24'
p6019
aS'7.0'
p6020
asS'[63.0, 87.0, 88.0]'
p6021
(lp6022
S'29'
p6023
aS'2.0'
p6024
asS'[168.0, 221.0, 270.0]'
p6025
(lp6026
S'27'
p6027
aS'4.0'
p6028
asS'[53.0]'
p6029
(lp6030
S'25'
p6031
aS'6.0'
p6032
asS'[71.0, 216.0, 242.0]'
p6033
(lp6034
S'29'
p6035
aS'2.0'
p6036
asS'[42.0]'
p6037
(lp6038
S'10'
p6039
aS'23.0'
p6040
asS'[71.0]'
p6041
(lp6042
g195
aS'29.0'
p6043
asS'[78.0, 192.0]'
p6044
(lp6045
S'27'
p6046
aS'4.0'
p6047
asS'[114.0]'
p6048
(lp6049
S'11'
p6050
aS'22.0'
p6051
asS'[76.0, 78.0, 150.0]'
p6052
(lp6053
S'28'
p6054
aS'3.0'
p6055
asS'[17.0, 40.0, 143.0]'
p6056
(lp6057
S'29'
p6058
aS'2.0'
p6059
asS'[76.0, 250.0]'
p6060
(lp6061
S'11'
p6062
aS'22.0'
p6063
asS'[231.0, 242.0, 305.0]'
p6064
(lp6065
S'29'
p6066
aS'2.0'
p6067
asS'[70.0, 114.0]'
p6068
(lp6069
S'28'
p6070
aS'3.0'
p6071
asS'[8.0, 34.0, 100.0]'
p6072
(lp6073
S'29'
p6074
aS'2.0'
p6075
asS'[266.0]'
p6076
(lp6077
S'27'
p6078
aS'4.0'
p6079
asS'[84.0, 157.0]'
p6080
(lp6081
S'29'
p6082
aS'2.0'
p6083
asS'[7.0]'
p6084
(lp6085
S'13'
p6086
aS'18.0'
p6087
asS'[8.0, 90.0]'
p6088
(lp6089
S'22'
p6090
aS'9.0'
p6091
asS'[161.0, 178.0, 305.0]'
p6092
(lp6093
S'29'
p6094
aS'2.0'
p6095
asS'[5.0]'
p6096
(lp6097
S'27'
p6098
aS'4.0'
p6099
asS'[72.0, 76.0, 192.0]'
p6100
(lp6101
S'29'
p6102
aS'2.0'
p6103
asS'[73.0, 306.0]'
p6104
(lp6105
S'27'
p6106
aS'4.0'
p6107
asS'[112.0, 157.0]'
p6108
(lp6109
S'29'
p6110
aS'2.0'
p6111
asS'[57.0, 63.0, 88.0]'
p6112
(lp6113
S'27'
p6114
aS'4.0'
p6115
asS'[78.0, 149.0]'
p6116
(lp6117
S'27'
p6118
aS'4.0'
p6119
asS'[151.0, 169.0, 226.0]'
p6120
(lp6121
S'29'
p6122
aS'2.0'
p6123
asS'[194.0, 224.0]'
p6124
(lp6125
S'28'
p6126
aS'3.0'
p6127
asS'[1.0]'
p6128
(lp6129
S'16'
p6130
aS'15.0'
p6131
asS'[62.0, 157.0]'
p6132
(lp6133
S'21'
p6134
aS'10.0'
p6135
asS'[72.0, 76.0, 208.0]'
p6136
(lp6137
S'28'
p6138
aS'3.0'
p6139
asS'[47.0, 139.0]'
p6140
(lp6141
S'27'
p6142
aS'4.0'
p6143
asS'[16.0, 118.0]'
p6144
(lp6145
S'25'
p6146
aS'6.0'
p6147
asS'[71.0, 242.0]'
p6148
(lp6149
S'27'
p6150
aS'4.0'
p6151
asS'[247.0, 281.0]'
p6152
(lp6153
S'27'
p6154
aS'4.0'
p6155
asS'[72.0, 217.0]'
p6156
(lp6157
S'11'
p6158
aS'22.0'
p6159
asS'[75.0, 229.0]'
p6160
(lp6161
S'29'
p6162
aS'2.0'
p6163
asS'[13.0, 99.0]'
p6164
(lp6165
S'21'
p6166
aS'10.0'
p6167
asS'[73.0, 75.0, 200.0]'
p6168
(lp6169
S'29'
p6170
aS'2.0'
p6171
asS'[204.0, 216.0, 223.0]'
p6172
(lp6173
S'29'
p6174
aS'2.0'
p6175
asS'[90.0, 92.0, 118.0]'
p6176
(lp6177
S'28'
p6178
aS'3.0'
p6179
asS'[6.0, 24.0]'
p6180
(lp6181
S'29'
p6182
aS'2.0'
p6183
asS'[231.0, 280.0]'
p6184
(lp6185
S'29'
p6186
aS'2.0'
p6187
asS'[19.0]'
p6188
(lp6189
S'20'
p6190
aS'11.0'
p6191
asS'[119.0, 159.0]'
p6192
(lp6193
S'25'
p6194
aS'6.0'
p6195
asS'[8.0, 32.0, 305.0]'
p6196
(lp6197
S'28'
p6198
aS'3.0'
p6199
asS'[74.0, 79.0, 111.0]'
p6200
(lp6201
S'29'
p6202
aS'2.0'
p6203
asS'[71.0, 74.0, 229.0]'
p6204
(lp6205
S'27'
p6206
aS'4.0'
p6207
asS'[72.0, 78.0, 161.0]'
p6208
(lp6209
S'28'
p6210
aS'3.0'
p6211
asS'[17.0, 40.0]'
p6212
(lp6213
S'29'
p6214
aS'2.0'
p6215
asS'[61.0, 178.0]'
p6216
(lp6217
S'26'
p6218
aS'5.0'
p6219
asS'[40.0, 143.0]'
p6220
(lp6221
S'29'
p6222
aS'2.0'
p6223
asS'[55.0, 95.0]'
p6224
(lp6225
S'29'
p6226
aS'2.0'
p6227
asS'[127.0, 213.0]'
p6228
(lp6229
S'26'
p6230
aS'5.0'
p6231
asS'[218.0, 270.0, 277.0]'
p6232
(lp6233
S'29'
p6234
aS'2.0'
p6235
asS'[117.0, 193.0]'
p6236
(lp6237
S'27'
p6238
aS'4.0'
p6239
asS'[78.0, 155.0, 198.0]'
p6240
(lp6241
S'29'
p6242
aS'2.0'
p6243
asS'[2.0, 119.0, 145.0]'
p6244
(lp6245
S'29'
p6246
aS'2.0'
p6247
asS'[219.0, 245.0]'
p6248
(lp6249
g279
aS'25.0'
p6250
asS'[99.0, 120.0]'
p6251
(lp6252
S'28'
p6253
aS'3.0'
p6254
asS'[81.0, 221.0]'
p6255
(lp6256
S'26'
p6257
aS'5.0'
p6258
asS'[105.0, 306.0]'
p6259
(lp6260
S'29'
p6261
aS'2.0'
p6262
asS'[71.0, 240.0]'
p6263
(lp6264
S'28'
p6265
aS'3.0'
p6266
asS'[145.0, 198.0]'
p6267
(lp6268
S'11'
p6269
aS'22.0'
p6270
asS'[95.0, 128.0]'
p6271
(lp6272
S'26'
p6273
aS'5.0'
p6274
asS'[74.0, 157.0, 193.0]'
p6275
(lp6276
S'29'
p6277
aS'2.0'
p6278
asS'[4.0, 18.0]'
p6279
(lp6280
S'29'
p6281
aS'2.0'
p6282
asS'[81.0, 222.0]'
p6283
(lp6284
S'27'
p6285
aS'4.0'
p6286
asS'[74.0, 156.0]'
p6287
(lp6288
S'27'
p6289
aS'4.0'
p6290
asS'[91.0]'
p6291
(lp6292
S'16'
p6293
aS'15.0'
p6294
asS'[56.0, 159.0]'
p6295
(lp6296
S'23'
p6297
aS'8.0'
p6298
asS'[74.0, 154.0]'
p6299
(lp6300
S'29'
p6301
aS'2.0'
p6302
asS'[47.0]'
p6303
(lp6304
S'19'
p6305
aS'12.0'
p6306
asS'[40.0, 135.0]'
p6307
(lp6308
S'28'
p6309
aS'3.0'
p6310
asS'[166.0, 168.0]'
p6311
(lp6312
S'26'
p6313
aS'5.0'
p6314
asS'[117.0, 224.0]'
p6315
(lp6316
S'29'
p6317
aS'2.0'
p6318
asS'[258.0]'
p6319
(lp6320
S'12'
p6321
aS'19.0'
p6322
asS'[12.0]'
p6323
(lp6324
S'21'
p6325
aS'10.0'
p6326
asS'[91.0, 113.0]'
p6327
(lp6328
S'25'
p6329
aS'6.0'
p6330
asS'[52.0, 95.0, 128.0]'
p6331
(lp6332
S'28'
p6333
aS'3.0'
p6334
asS'[72.0, 73.0, 74.0, 229.0]'
p6335
(lp6336
S'29'
p6337
aS'2.0'
p6338
asS'[113.0, 178.0]'
p6339
(lp6340
S'29'
p6341
aS'2.0'
p6342
asS'[242.0, 305.0]'
p6343
(lp6344
S'26'
p6345
aS'5.0'
p6346
asS'[71.0, 73.0, 185.0]'
p6347
(lp6348
S'29'
p6349
aS'2.0'
p6350
asS'[95.0, 127.0, 166.0]'
p6351
(lp6352
S'29'
p6353
aS'2.0'
p6354
asS'[178.0, 254.0, 255.0]'
p6355
(lp6356
S'29'
p6357
aS'2.0'
p6358
asS'[50.0, 84.0]'
p6359
(lp6360
S'20'
p6361
aS'11.0'
p6362
asS'[192.0, 306.0]'
p6363
(lp6364
S'21'
p6365
aS'10.0'
p6366
asS'[96.0, 178.0]'
p6367
(lp6368
S'29'
p6369
aS'2.0'
p6370
asS'[161.0, 178.0]'
p6371
(lp6372
S'29'
p6373
aS'2.0'
p6374
asS'[71.0, 77.0]'
p6375
(lp6376
S'27'
p6377
aS'4.0'
p6378
asS'[153.0, 166.0, 168.0]'
p6379
(lp6380
S'27'
p6381
aS'4.0'
p6382
asS'[76.0, 78.0, 111.0]'
p6383
(lp6384
S'27'
p6385
aS'4.0'
p6386
asS'[208.0, 216.0]'
p6387
(lp6388
S'11'
p6389
aS'22.0'
p6390
asS'[54.0, 303.0]'
p6391
(lp6392
S'26'
p6393
aS'5.0'
p6394
asS'[155.0, 166.0]'
p6395
(lp6396
S'28'
p6397
aS'3.0'
p6398
asS'[72.0, 82.0]'
p6399
(lp6400
S'25'
p6401
aS'6.0'
p6402
asS'[72.0, 82.0, 217.0]'
p6403
(lp6404
S'27'
p6405
aS'4.0'
p6406
asS'[18.0, 41.0, 102.0]'
p6407
(lp6408
S'29'
p6409
aS'2.0'
p6410
asS'[94.0, 107.0]'
p6411
(lp6412
S'25'
p6413
aS'6.0'
p6414
asS'[215.0, 219.0]'
p6415
(lp6416
S'23'
p6417
aS'8.0'
p6418
asS'[205.0, 208.0]'
p6419
(lp6420
S'29'
p6421
aS'2.0'
p6422
asS'[46.0, 138.0]'
p6423
(lp6424
S'20'
p6425
aS'11.0'
p6426
asS'[68.0, 84.0, 110.0]'
p6427
(lp6428
S'28'
p6429
aS'3.0'
p6430
asS'[153.0]'
p6431
(lp6432
S'20'
p6433
aS'11.0'
p6434
asS'[55.0, 89.0, 198.0]'
p6435
(lp6436
S'29'
p6437
aS'2.0'
p6438
asS'[43.0, 89.0]'
p6439
(lp6440
S'17'
p6441
aS'14.0'
p6442
asS'[82.0, 217.0]'
p6443
(lp6444
S'27'
p6445
aS'4.0'
p6446
asS'[85.0, 136.0]'
p6447
(lp6448
S'29'
p6449
aS'2.0'
p6450
asS'[154.0, 184.0]'
p6451
(lp6452
S'27'
p6453
aS'4.0'
p6454
asS'[75.0, 204.0, 223.0]'
p6455
(lp6456
S'29'
p6457
aS'2.0'
p6458
asS'[189.0, 199.0]'
p6459
(lp6460
S'17'
p6461
aS'14.0'
p6462
asS'[23.0, 29.0]'
p6463
(lp6464
S'28'
p6465
aS'3.0'
p6466
asS'[76.0, 149.0, 217.0]'
p6467
(lp6468
S'29'
p6469
aS'2.0'
p6470
asS'[28.0, 31.0]'
p6471
(lp6472
S'28'
p6473
aS'3.0'
p6474
asS'[76.0, 252.0]'
p6475
(lp6476
S'20'
p6477
aS'11.0'
p6478
asS'[149.0, 193.0, 306.0]'
p6479
(lp6480
S'27'
p6481
aS'4.0'
p6482
asS'[29.0, 122.0, 305.0]'
p6483
(lp6484
S'26'
p6485
aS'5.0'
p6486
asS'[134.0, 217.0]'
p6487
(lp6488
S'28'
p6489
aS'3.0'
p6490
asS'[92.0]'
p6491
(lp6492
S'11'
p6493
aS'22.0'
p6494
asS'[73.0]'
p6495
(lp6496
S'11'
p6497
aS'22.0'
p6498
asS'[71.0, 181.0]'
p6499
(lp6500
S'25'
p6501
aS'6.0'
p6502
asS'[227.0, 235.0]'
p6503
(lp6504
S'29'
p6505
aS'2.0'
p6506
asS'[80.0, 119.0]'
p6507
(lp6508
S'28'
p6509
aS'3.0'
p6510
asS'[62.0, 75.0, 161.0]'
p6511
(lp6512
S'29'
p6513
aS'2.0'
p6514
asS'[130.0]'
p6515
(lp6516
S'29'
p6517
aS'2.0'
p6518
asS'[18.0]'
p6519
(lp6520
g279
aS'25.0'
p6521
asS'[82.0, 157.0, 218.0]'
p6522
(lp6523
S'29'
p6524
aS'2.0'
p6525
asS'[78.0]'
p6526
(lp6527
g195
aS'29.0'
p6528
asS'[10.0]'
p6529
(lp6530
S'26'
p6531
aS'5.0'
p6532
asS'[15.0, 31.0]'
p6533
(lp6534
S'19'
p6535
aS'12.0'
p6536
asS'[74.0, 79.0, 193.0]'
p6537
(lp6538
S'29'
p6539
aS'2.0'
p6540
asS'[73.0, 148.0]'
p6541
(lp6542
S'29'
p6543
aS'2.0'
p6544
asS'[96.0, 157.0, 193.0]'
p6545
(lp6546
S'27'
p6547
aS'4.0'
p6548
asS'[2.0, 69.0, 119.0]'
p6549
(lp6550
S'29'
p6551
aS'2.0'
p6552
asS'[77.0, 143.0]'
p6553
(lp6554
S'21'
p6555
aS'10.0'
p6556
asS'[71.0, 162.0]'
p6557
(lp6558
S'26'
p6559
aS'5.0'
p6560
asS'[96.0, 193.0]'
p6561
(lp6562
S'23'
p6563
aS'8.0'
p6564
asS'[179.0, 216.0]'
p6565
(lp6566
S'13'
p6567
aS'18.0'
p6568
asS'[131.0]'
p6569
(lp6570
S'10'
p6571
aS'23.0'
p6572
asS'[14.0, 22.0]'
p6573
(lp6574
S'25'
p6575
aS'6.0'
p6576
asS'[71.0, 217.0, 240.0]'
p6577
(lp6578
S'29'
p6579
aS'2.0'
p6580
asS'[89.0, 140.0]'
p6581
(lp6582
S'28'
p6583
aS'3.0'
p6584
asS'[77.0, 198.0]'
p6585
(lp6586
S'29'
p6587
aS'2.0'
p6588
asS'[93.0, 140.0]'
p6589
(lp6590
S'28'
p6591
aS'3.0'
p6592
asS'[195.0, 216.0, 244.0]'
p6593
(lp6594
S'29'
p6595
aS'2.0'
p6596
asS'[6.0, 41.0]'
p6597
(lp6598
S'29'
p6599
aS'2.0'
p6600
asS'[251.0, 252.0]'
p6601
(lp6602
S'29'
p6603
aS'2.0'
p6604
asS'[123.0, 199.0, 305.0]'
p6605
(lp6606
S'29'
p6607
aS'2.0'
p6608
asS'[36.0, 77.0]'
p6609
(lp6610
S'17'
p6611
aS'14.0'
p6612
asS'[194.0, 219.0, 224.0]'
p6613
(lp6614
S'29'
p6615
aS'2.0'
p6616
asS'[74.0, 225.0]'
p6617
(lp6618
S'29'
p6619
aS'2.0'
p6620
asS'[189.0]'
p6621
(lp6622
S'17'
p6623
aS'14.0'
p6624
asS'[76.0, 80.0, 145.0, 192.0]'
p6625
(lp6626
S'28'
p6627
aS'3.0'
p6628
asS'[77.0, 141.0]'
p6629
(lp6630
S'27'
p6631
aS'4.0'
p6632
asS'[89.0, 101.0]'
p6633
(lp6634
S'27'
p6635
aS'4.0'
p6636
asS'[194.0, 218.0, 223.0]'
p6637
(lp6638
S'29'
p6639
aS'2.0'
p6640
asS'[78.0, 149.0, 216.0]'
p6641
(lp6642
S'27'
p6643
aS'4.0'
p6644
asS'[3.0, 93.0]'
p6645
(lp6646
S'28'
p6647
aS'3.0'
p6648
asS'[94.0]'
p6649
(lp6650
S'21'
p6651
aS'10.0'
p6652
asS'[243.0, 281.0]'
p6653
(lp6654
S'29'
p6655
aS'2.0'
p6656
asS'[90.0]'
p6657
(lp6658
S'10'
p6659
aS'23.0'
p6660
asS'[80.0, 81.0]'
p6661
(lp6662
S'29'
p6663
aS'2.0'
p6664
asS'[77.0, 227.0]'
p6665
(lp6666
S'29'
p6667
aS'2.0'
p6668
asS'[148.0, 180.0]'
p6669
(lp6670
S'29'
p6671
aS'2.0'
p6672
asS'[133.0]'
p6673
(lp6674
g442
aS'27.0'
p6675
asS'[112.0]'
p6676
(lp6677
g195
aS'29.0'
p6678
asS'[74.0, 96.0]'
p6679
(lp6680
S'29'
p6681
aS'2.0'
p6682
asS'[79.0, 111.0]'
p6683
(lp6684
S'29'
p6685
aS'2.0'
p6686
asS'[224.0]'
p6687
(lp6688
S'20'
p6689
aS'11.0'
p6690
asS'[51.0, 55.0, 57.0]'
p6691
(lp6692
S'29'
p6693
aS'2.0'
p6694
asS'[8.0, 34.0]'
p6695
(lp6696
S'29'
p6697
aS'2.0'
p6698
asS'[56.0, 96.0]'
p6699
(lp6700
S'29'
p6701
aS'2.0'
p6702
asS'[270.0, 280.0]'
p6703
(lp6704
S'26'
p6705
aS'5.0'
p6706
asS'[80.0, 135.0]'
p6707
(lp6708
S'22'
p6709
aS'9.0'
p6710
asS'[80.0, 158.0]'
p6711
(lp6712
S'21'
p6713
aS'10.0'
p6714
asS'[240.0, 246.0, 278.0]'
p6715
(lp6716
S'20'
p6717
aS'11.0'
p6718
asS'[71.0, 217.0, 242.0]'
p6719
(lp6720
S'27'
p6721
aS'4.0'
p6722
asS'[42.0, 189.0]'
p6723
(lp6724
S'25'
p6725
aS'6.0'
p6726
asS'[80.0, 156.0, 192.0]'
p6727
(lp6728
S'29'
p6729
aS'2.0'
p6730
asS'[38.0]'
p6731
(lp6732
S'26'
p6733
aS'5.0'
p6734
asS'[78.0, 198.0, 216.0]'
p6735
(lp6736
S'29'
p6737
aS'2.0'
p6738
asS'[16.0]'
p6739
(lp6740
S'10'
p6741
aS'23.0'
p6742
asS'[24.0, 142.0]'
p6743
(lp6744
S'19'
p6745
aS'12.0'
p6746
asS'[7.0, 33.0]'
p6747
(lp6748
S'16'
p6749
aS'15.0'
p6750
asS'[226.0]'
p6751
(lp6752
S'26'
p6753
aS'5.0'
p6754
asS'[72.0, 237.0]'
p6755
(lp6756
S'29'
p6757
aS'2.0'
p6758
asS'[204.0, 223.0]'
p6759
(lp6760
S'29'
p6761
aS'2.0'
p6762
asS'[63.0, 87.0, 113.0]'
p6763
(lp6764
S'27'
p6765
aS'4.0'
p6766
asS'[76.0, 164.0]'
p6767
(lp6768
S'19'
p6769
aS'12.0'
p6770
asS'[53.0, 92.0]'
p6771
(lp6772
S'28'
p6773
aS'3.0'
p6774
asS'[216.0, 223.0]'
p6775
(lp6776
S'26'
p6777
aS'5.0'
p6778
asS'[45.0, 61.0]'
p6779
(lp6780
S'27'
p6781
aS'4.0'
p6782
asS'[147.0, 179.0]'
p6783
(lp6784
S'27'
p6785
aS'4.0'
p6786
asS'[33.0, 40.0]'
p6787
(lp6788
S'26'
p6789
aS'5.0'
p6790
asS'[112.0, 161.0, 178.0]'
p6791
(lp6792
S'29'
p6793
aS'2.0'
p6794
asS'[223.0, 224.0]'
p6795
(lp6796
S'20'
p6797
aS'11.0'
p6798
asS'[100.0, 121.0]'
p6799
(lp6800
S'29'
p6801
aS'2.0'
p6802
asS'[83.0, 113.0]'
p6803
(lp6804
S'29'
p6805
aS'2.0'
p6806
asS'[11.0, 19.0]'
p6807
(lp6808
S'20'
p6809
aS'11.0'
p6810
asS'[167.0, 251.0]'
p6811
(lp6812
S'26'
p6813
aS'5.0'
p6814
asS'[127.0, 166.0]'
p6815
(lp6816
S'29'
p6817
aS'2.0'
p6818
asS'[258.0, 305.0]'
p6819
(lp6820
S'27'
p6821
aS'4.0'
p6822
asS'[49.0, 83.0]'
p6823
(lp6824
S'25'
p6825
aS'6.0'
p6826
asS'[269.0, 277.0]'
p6827
(lp6828
S'27'
p6829
aS'4.0'
p6830
asS'[46.0, 62.0]'
p6831
(lp6832
S'29'
p6833
aS'2.0'
p6834
asS'[90.0, 139.0]'
p6835
(lp6836
S'29'
p6837
aS'2.0'
p6838
asS'[101.0, 161.0]'
p6839
(lp6840
S'24'
p6841
aS'7.0'
p6842
asS'[116.0, 183.0]'
p6843
(lp6844
S'29'
p6845
aS'2.0'
p6846
asS'[2.0, 69.0]'
p6847
(lp6848
S'28'
p6849
aS'3.0'
p6850
asS'[267.0, 305.0]'
p6851
(lp6852
S'16'
p6853
aS'15.0'
p6854
asS'[179.0]'
p6855
(lp6856
S'13'
p6857
aS'18.0'
p6858
asS'[4.0, 60.0]'
p6859
(lp6860
S'25'
p6861
aS'6.0'
p6862
asS'[73.0, 192.0, 200.0]'
p6863
(lp6864
S'29'
p6865
aS'2.0'
p6866
asS'[237.0]'
p6867
(lp6868
S'13'
p6869
aS'18.0'
p6870
asS'[126.0, 202.0]'
p6871
(lp6872
S'28'
p6873
aS'3.0'
p6874
asS'[33.0, 43.0]'
p6875
(lp6876
S'27'
p6877
aS'4.0'
p6878
asS'[71.0, 227.0]'
p6879
(lp6880
S'22'
p6881
aS'9.0'
p6882
asS'[144.0, 174.0]'
p6883
(lp6884
S'29'
p6885
aS'2.0'
p6886
asS'[90.0, 92.0, 139.0]'
p6887
(lp6888
S'29'
p6889
aS'2.0'
p6890
asS'[80.0, 119.0, 145.0]'
p6891
(lp6892
S'28'
p6893
aS'3.0'
p6894
asS'[49.0]'
p6895
(lp6896
S'25'
p6897
aS'6.0'
p6898
asS'[58.0, 84.0]'
p6899
(lp6900
S'25'
p6901
aS'6.0'
p6902
asS'[82.0, 177.0]'
p6903
(lp6904
S'29'
p6905
aS'2.0'
p6906
asS'[280.0]'
p6907
(lp6908
S'26'
p6909
aS'5.0'
p6910
asS'[17.0, 78.0]'
p6911
(lp6912
g195
aS'29.0'
p6913
asS'[46.0, 56.0]'
p6914
(lp6915
S'29'
p6916
aS'2.0'
p6917
asS'[77.0, 169.0]'
p6918
(lp6919
S'27'
p6920
aS'4.0'
p6921
asS'[89.0, 121.0]'
p6922
(lp6923
S'29'
p6924
aS'2.0'
p6925
asS'[48.0, 62.0, 76.0]'
p6926
(lp6927
S'28'
p6928
aS'3.0'
p6929
asS'[1.0, 145.0]'
p6930
(lp6931
S'29'
p6932
aS'2.0'
p6933
asS'[233.0, 282.0]'
p6934
(lp6935
S'29'
p6936
aS'2.0'
p6937
asS'[72.0, 104.0]'
p6938
(lp6939
S'24'
p6940
aS'7.0'
p6941
asS'[229.0, 278.0, 305.0]'
p6942
(lp6943
S'29'
p6944
aS'2.0'
p6945
asS'[89.0, 108.0, 139.0]'
p6946
(lp6947
S'29'
p6948
aS'2.0'
p6949
asS'[222.0]'
p6950
(lp6951
S'22'
p6952
aS'9.0'
p6953
asS'[12.0, 41.0]'
p6954
(lp6955
S'29'
p6956
aS'2.0'
p6957
asS'[92.0, 96.0]'
p6958
(lp6959
S'25'
p6960
aS'6.0'
p6961
asS'[78.0, 169.0]'
p6962
(lp6963
S'28'
p6964
aS'3.0'
p6965
asS'[189.0, 250.0]'
p6966
(lp6967
S'29'
p6968
aS'2.0'
p6969
asS'[217.0, 263.0]'
p6970
(lp6971
S'29'
p6972
aS'2.0'
p6973
asS'[200.0, 221.0]'
p6974
(lp6975
S'27'
p6976
aS'4.0'
p6977
asS'[41.0, 93.0]'
p6978
(lp6979
S'27'
p6980
aS'4.0'
p6981
asS'[71.0, 251.0, 252.0]'
p6982
(lp6983
S'29'
p6984
aS'2.0'
p6985
asS'[203.0, 218.0]'
p6986
(lp6987
S'29'
p6988
aS'2.0'
p6989
asS'[73.0, 228.0, 276.0]'
p6990
(lp6991
S'29'
p6992
aS'2.0'
p6993
asS'[90.0, 145.0, 198.0]'
p6994
(lp6995
S'29'
p6996
aS'2.0'
p6997
asS'[71.0, 77.0, 162.0]'
p6998
(lp6999
S'27'
p7000
aS'4.0'
p7001
asS'[56.0, 119.0, 158.0]'
p7002
(lp7003
S'29'
p7004
aS'2.0'
p7005
asS'[3.0, 23.0, 31.0]'
p7006
(lp7007
S'28'
p7008
aS'3.0'
p7009
asS'[13.0, 21.0]'
p7010
(lp7011
S'20'
p7012
aS'11.0'
p7013
asS'[78.0, 235.0]'
p7014
(lp7015
S'28'
p7016
aS'3.0'
p7017
asS'[152.0, 169.0, 227.0]'
p7018
(lp7019
S'28'
p7020
aS'3.0'
p7021
asS'[174.0, 216.0]'
p7022
(lp7023
S'22'
p7024
aS'9.0'
p7025
asS'[76.0, 154.0, 217.0]'
p7026
(lp7027
S'27'
p7028
aS'4.0'
p7029
asS'[122.0, 305.0]'
p7030
(lp7031
S'26'
p7032
aS'5.0'
p7033
asS'[154.0]'
p7034
(lp7035
S'26'
p7036
aS'5.0'
p7037
asS'[73.0, 74.0, 193.0, 216.0]'
p7038
(lp7039
S'29'
p7040
aS'2.0'
p7041
asS'[235.0]'
p7042
(lp7043
S'28'
p7044
aS'3.0'
p7045
asS'[220.0]'
p7046
(lp7047
S'23'
p7048
aS'8.0'
p7049
asS'[74.0, 91.0]'
p7050
(lp7051
S'19'
p7052
aS'12.0'
p7053
asS'[117.0, 148.0]'
p7054
(lp7055
S'29'
p7056
aS'2.0'
p7057
asS'[245.0, 252.0]'
p7058
(lp7059
S'27'
p7060
aS'4.0'
p7061
asS'[72.0, 187.0]'
p7062
(lp7063
S'28'
p7064
aS'3.0'
p7065
asS'[72.0, 78.0, 217.0, 240.0]'
p7066
(lp7067
S'29'
p7068
aS'2.0'
p7069
asS'[155.0, 198.0]'
p7070
(lp7071
S'28'
p7072
aS'3.0'
p7073
asS'[93.0, 95.0, 140.0]'
p7074
(lp7075
S'28'
p7076
aS'3.0'
p7077
asS'[252.0, 253.0]'
p7078
(lp7079
S'27'
p7080
aS'4.0'
p7081
asS'[178.0, 255.0]'
p7082
(lp7083
S'29'
p7084
aS'2.0'
p7085
asS'[149.0, 216.0]'
p7086
(lp7087
S'13'
p7088
aS'18.0'
p7089
asS'[76.0, 78.0, 192.0]'
p7090
(lp7091
S'27'
p7092
aS'4.0'
p7093
asS'[75.0, 241.0]'
p7094
(lp7095
S'29'
p7096
aS'2.0'
p7097
asS'[63.0, 113.0]'
p7098
(lp7099
S'27'
p7100
aS'4.0'
p7101
asS'[116.0, 179.0]'
p7102
(lp7103
S'26'
p7104
aS'5.0'
p7105
asS'[71.0, 174.0, 217.0]'
p7106
(lp7107
S'26'
p7108
aS'5.0'
p7109
asS'[84.0, 114.0]'
p7110
(lp7111
S'29'
p7112
aS'2.0'
p7113
asS'[63.0, 87.0]'
p7114
(lp7115
S'27'
p7116
aS'4.0'
p7117
asS'[78.0, 165.0]'
p7118
(lp7119
S'28'
p7120
aS'3.0'
p7121
asS'[48.0, 74.0, 216.0]'
p7122
(lp7123
S'29'
p7124
aS'2.0'
p7125
asS'[139.0, 305.0]'
p7126
(lp7127
S'28'
p7128
aS'3.0'
p7129
asS'[8.0, 41.0]'
p7130
(lp7131
S'24'
p7132
aS'7.0'
p7133
asS'[236.0]'
p7134
(lp7135
S'21'
p7136
aS'10.0'
p7137
asS'[81.0, 217.0, 222.0]'
p7138
(lp7139
S'28'
p7140
aS'3.0'
p7141
asS'[66.0, 178.0]'
p7142
(lp7143
S'29'
p7144
aS'2.0'
p7145
asS'[58.0, 110.0]'
p7146
(lp7147
S'28'
p7148
aS'3.0'
p7149
asS'[62.0, 161.0, 178.0]'
p7150
(lp7151
S'29'
p7152
aS'2.0'
p7153
asS'[28.0, 199.0]'
p7154
(lp7155
S'29'
p7156
aS'2.0'
p7157
asS'[234.0]'
p7158
(lp7159
g2012
aS'70.0'
p7160
asS'[177.0, 305.0]'
p7161
(lp7162
S'29'
p7163
aS'2.0'
p7164
asS'[46.0, 159.0]'
p7165
(lp7166
S'25'
p7167
aS'6.0'
p7168
asS'[186.0, 275.0]'
p7169
(lp7170
S'29'
p7171
aS'2.0'
p7172
asS'[117.0, 220.0]'
p7173
(lp7174
S'26'
p7175
aS'5.0'
p7176
asS'[62.0, 110.0]'
p7177
(lp7178
S'28'
p7179
aS'3.0'
p7180
asS'[55.0, 89.0]'
p7181
(lp7182
S'29'
p7183
aS'2.0'
p7184
asS'[71.0, 73.0, 145.0, 192.0]'
p7185
(lp7186
S'29'
p7187
aS'2.0'
p7188
asS'[72.0, 76.0, 78.0, 192.0]'
p7189
(lp7190
S'29'
p7191
aS'2.0'
p7192
asS'[11.0, 27.0]'
p7193
(lp7194
S'29'
p7195
aS'2.0'
p7196
asS'[188.0, 195.0, 196.0]'
p7197
(lp7198
S'29'
p7199
aS'2.0'
p7200
asS'[76.0, 80.0, 205.0]'
p7201
(lp7202
S'29'
p7203
aS'2.0'
p7204
asS'[77.0, 162.0]'
p7205
(lp7206
S'27'
p7207
aS'4.0'
p7208
asS'[37.0, 102.0, 121.0]'
p7209
(lp7210
S'29'
p7211
aS'2.0'
p7212
asS'[36.0, 41.0, 102.0]'
p7213
(lp7214
S'29'
p7215
aS'2.0'
p7216
asS'[51.0, 59.0]'
p7217
(lp7218
S'28'
p7219
aS'3.0'
p7220
asS'[72.0, 76.0, 145.0, 192.0]'
p7221
(lp7222
S'29'
p7223
aS'2.0'
p7224
asS'[89.0, 99.0]'
p7225
(lp7226
S'29'
p7227
aS'2.0'
p7228
asS'[94.0, 107.0, 140.0]'
p7229
(lp7230
S'29'
p7231
aS'2.0'
p7232
asS'[172.0, 217.0, 222.0]'
p7233
(lp7234
S'28'
p7235
aS'3.0'
p7236
asS'[75.0, 155.0]'
p7237
(lp7238
S'27'
p7239
aS'4.0'
p7240
asS'[219.0]'
p7241
(lp7242
g2351
aS'31.0'
p7243
asS'[186.0, 187.0, 275.0]'
p7244
(lp7245
S'29'
p7246
aS'2.0'
p7247
asS'[74.0, 142.0]'
p7248
(lp7249
S'29'
p7250
aS'2.0'
p7251
asS'[109.0, 156.0]'
p7252
(lp7253
S'28'
p7254
aS'3.0'
p7255
asS'[76.0, 192.0, 200.0]'
p7256
(lp7257
S'29'
p7258
aS'2.0'
p7259
asS'[62.0, 72.0, 161.0]'
p7260
(lp7261
S'29'
p7262
aS'2.0'
p7263
asS'[102.0, 121.0]'
p7264
(lp7265
S'28'
p7266
aS'3.0'
p7267
asS'[15.0, 23.0, 118.0]'
p7268
(lp7269
S'29'
p7270
aS'2.0'
p7271
asS'[195.0, 244.0]'
p7272
(lp7273
S'26'
p7274
aS'5.0'
p7275
asS'[76.0, 80.0, 145.0]'
p7276
(lp7277
S'28'
p7278
aS'3.0'
p7279
asS'[139.0]'
p7280
(lp7281
g195
aS'29.0'
p7282
asS'[46.0, 57.0, 90.0, 114.0]'
p7283
(lp7284
S'29'
p7285
aS'2.0'
p7286
asS'[51.0, 123.0, 199.0]'
p7287
(lp7288
S'29'
p7289
aS'2.0'
p7290
asS'[52.0, 89.0]'
p7291
(lp7292
S'25'
p7293
aS'6.0'
p7294
asS'[71.0, 217.0]'
p7295
(lp7296
S'22'
p7297
aS'9.0'
p7298
asS'[282.0]'
p7299
(lp7300
S'25'
p7301
aS'6.0'
p7302
asS'[55.0, 135.0]'
p7303
(lp7304
S'28'
p7305
aS'3.0'
p7306
asS'[75.0, 149.0, 215.0]'
p7307
(lp7308
S'29'
p7309
aS'2.0'
p7310
asS'[80.0, 137.0]'
p7311
(lp7312
S'28'
p7313
aS'3.0'
p7314
asS'[256.0, 279.0, 305.0]'
p7315
(lp7316
S'28'
p7317
aS'3.0'
p7318
asS'[8.0, 14.0, 32.0]'
p7319
(lp7320
S'29'
p7321
aS'2.0'
p7322
asS'[248.0]'
p7323
(lp7324
S'21'
p7325
aS'10.0'
p7326
asS'[246.0, 270.0]'
p7327
(lp7328
S'26'
p7329
aS'5.0'
p7330
asS'[116.0, 306.0]'
p7331
(lp7332
S'19'
p7333
aS'12.0'
p7334
asS'[76.0, 217.0, 224.0]'
p7335
(lp7336
S'28'
p7337
aS'3.0'
p7338
asS'[52.0, 77.0, 91.0]'
p7339
(lp7340
S'26'
p7341
aS'5.0'
p7342
asS'[28.0, 138.0]'
p7343
(lp7344
S'29'
p7345
aS'2.0'
p7346
asS'[193.0, 306.0]'
p7347
(lp7348
S'27'
p7349
aS'4.0'
p7350
asS'[34.0, 99.0]'
p7351
(lp7352
S'29'
p7353
aS'2.0'
p7354
asS'[238.0]'
p7355
(lp7356
S'15'
p7357
aS'16.0'
p7358
asS'[72.0, 188.0]'
p7359
(lp7360
S'29'
p7361
aS'2.0'
p7362
asS'[52.0, 57.0, 87.0, 88.0]'
p7363
(lp7364
S'29'
p7365
aS'2.0'
p7366
asS'[18.0, 99.0]'
p7367
(lp7368
S'23'
p7369
aS'8.0'
p7370
asS'[147.0, 177.0]'
p7371
(lp7372
S'28'
p7373
aS'3.0'
p7374
asS'[52.0, 91.0, 200.0]'
p7375
(lp7376
S'26'
p7377
aS'5.0'
p7378
asS'[95.0, 103.0]'
p7379
(lp7380
S'29'
p7381
aS'2.0'
p7382
asS'[98.0]'
p7383
(lp7384
S'10'
p7385
aS'23.0'
p7386
asS'[73.0, 76.0, 192.0, 200.0]'
p7387
(lp7388
S'29'
p7389
aS'2.0'
p7390
asS'[57.0, 63.0]'
p7391
(lp7392
S'25'
p7393
aS'6.0'
p7394
asS'[233.0]'
p7395
(lp7396
S'27'
p7397
aS'4.0'
p7398
asS'[2.0, 77.0]'
p7399
(lp7400
S'29'
p7401
aS'2.0'
p7402
asS'[187.0, 199.0]'
p7403
(lp7404
S'27'
p7405
aS'4.0'
p7406
asS'[99.0, 161.0]'
p7407
(lp7408
S'29'
p7409
aS'2.0'
p7410
asS'[78.0, 216.0]'
p7411
(lp7412
S'27'
p7413
aS'4.0'
p7414
asS'[82.0, 173.0, 177.0]'
p7415
(lp7416
S'29'
p7417
aS'2.0'
p7418
asS'[55.0, 178.0]'
p7419
(lp7420
S'16'
p7421
aS'15.0'
p7422
asS'[235.0, 245.0]'
p7423
(lp7424
S'29'
p7425
aS'2.0'
p7426
asS'[44.0, 94.0]'
p7427
(lp7428
S'29'
p7429
aS'2.0'
p7430
asS'[76.0, 225.0]'
p7431
(lp7432
S'28'
p7433
aS'3.0'
p7434
asS'[10.0, 22.0]'
p7435
(lp7436
S'29'
p7437
aS'2.0'
p7438
asS'[62.0, 74.0]'
p7439
(lp7440
S'29'
p7441
aS'2.0'
p7442
asS'[78.0, 117.0, 192.0]'
p7443
(lp7444
S'29'
p7445
aS'2.0'
p7446
asS'[62.0, 76.0]'
p7447
(lp7448
S'28'
p7449
aS'3.0'
p7450
asS'[95.0, 156.0]'
p7451
(lp7452
S'24'
p7453
aS'7.0'
p7454
asS'[178.0, 269.0, 305.0]'
p7455
(lp7456
S'29'
p7457
aS'2.0'
p7458
asS'[82.0, 147.0, 177.0]'
p7459
(lp7460
S'29'
p7461
aS'2.0'
p7462
asS'[62.0, 78.0]'
p7463
(lp7464
S'24'
p7465
aS'7.0'
p7466
asS'[72.0, 78.0, 217.0]'
p7467
(lp7468
S'28'
p7469
aS'3.0'
p7470
asS'[57.0, 88.0, 114.0]'
p7471
(lp7472
S'29'
p7473
aS'2.0'
p7474
asS'[38.0, 71.0]'
p7475
(lp7476
S'29'
p7477
aS'2.0'
p7478
asS'[77.0, 91.0, 120.0]'
p7479
(lp7480
S'28'
p7481
aS'3.0'
p7482
asS'[74.0, 146.0]'
p7483
(lp7484
S'24'
p7485
aS'7.0'
p7486
asS'[72.0, 78.0, 155.0]'
p7487
(lp7488
S'29'
p7489
aS'2.0'
p7490
asS'[35.0, 139.0]'
p7491
(lp7492
S'29'
p7493
aS'2.0'
p7494
asS'[198.0, 222.0]'
p7495
(lp7496
S'22'
p7497
aS'9.0'
p7498
asS'[10.0, 24.0]'
p7499
(lp7500
S'29'
p7501
aS'2.0'
p7502
asS'[168.0, 251.0]'
p7503
(lp7504
S'26'
p7505
aS'5.0'
p7506
asS'[127.0, 160.0]'
p7507
(lp7508
S'23'
p7509
aS'8.0'
p7510
asS'[75.0, 207.0]'
p7511
(lp7512
S'22'
p7513
aS'9.0'
p7514
asS'[117.0, 270.0, 305.0]'
p7515
(lp7516
S'28'
p7517
aS'3.0'
p7518
asS'[72.0, 76.0, 155.0]'
p7519
(lp7520
S'29'
p7521
aS'2.0'
p7522
asS'[24.0, 118.0]'
p7523
(lp7524
S'29'
p7525
aS'2.0'
p7526
asS'[118.0]'
p7527
(lp7528
S'20'
p7529
aS'11.0'
p7530
asS'[179.0, 180.0]'
p7531
(lp7532
S'29'
p7533
aS'2.0'
p7534
asS'[140.0, 202.0]'
p7535
(lp7536
S'28'
p7537
aS'3.0'
p7538
asS'[245.0]'
p7539
(lp7540
g279
aS'25.0'
p7541
asS'[44.0, 161.0]'
p7542
(lp7543
S'26'
p7544
aS'5.0'
p7545
asS'[90.0, 92.0]'
p7546
(lp7547
S'16'
p7548
aS'15.0'
p7549
asS'[72.0, 73.0]'
p7550
(lp7551
S'26'
p7552
aS'5.0'
p7553
asS'[73.0, 74.0, 142.0]'
p7554
(lp7555
S'29'
p7556
aS'2.0'
p7557
asS'[71.0, 192.0]'
p7558
(lp7559
S'25'
p7560
aS'6.0'
p7561
asS'[195.0, 250.0]'
p7562
(lp7563
S'29'
p7564
aS'2.0'
p7565
asS'[48.0, 88.0]'
p7566
(lp7567
S'28'
p7568
aS'3.0'
p7569
asS'[198.0, 216.0, 242.0]'
p7570
(lp7571
S'29'
p7572
aS'2.0'
p7573
asS'[117.0, 153.0, 234.0]'
p7574
(lp7575
S'26'
p7576
aS'5.0'
p7577
asS'[52.0, 95.0, 127.0]'
p7578
(lp7579
S'28'
p7580
aS'3.0'
p7581
asS'[79.0]'
p7582
(lp7583
S'15'
p7584
aS'16.0'
p7585
asS'[33.0, 143.0]'
p7586
(lp7587
S'27'
p7588
aS'4.0'
p7589
asS'[171.0, 174.0, 217.0]'
p7590
(lp7591
S'28'
p7592
aS'3.0'
p7593
asS'[71.0, 239.0]'
p7594
(lp7595
S'27'
p7596
aS'4.0'
p7597
asS'[216.0, 266.0]'
p7598
(lp7599
S'27'
p7600
aS'4.0'
p7601
asS'[9.0]'
p7602
(lp7603
S'10'
p7604
aS'23.0'
p7605
asS'[133.0, 172.0]'
p7606
(lp7607
S'27'
p7608
aS'4.0'
p7609
asS'[6.0, 305.0]'
p7610
(lp7611
S'29'
p7612
aS'2.0'
p7613
asS'[258.0, 282.0]'
p7614
(lp7615
S'28'
p7616
aS'3.0'
p7617
asS'[165.0]'
p7618
(lp7619
S'28'
p7620
aS'3.0'
p7621
asS'[241.0]'
p7622
(lp7623
S'27'
p7624
aS'4.0'
p7625
asS'[37.0, 118.0]'
p7626
(lp7627
S'24'
p7628
aS'7.0'
p7629
asS'[243.0]'
p7630
(lp7631
S'21'
p7632
aS'10.0'
p7633
asS'[17.0, 99.0, 143.0]'
p7634
(lp7635
S'29'
p7636
aS'2.0'
p7637
asS'[12.0, 25.0]'
p7638
(lp7639
S'22'
p7640
aS'9.0'
p7641
asS'[76.0, 111.0, 170.0]'
p7642
(lp7643
S'26'
p7644
aS'5.0'
p7645
asS'[16.0, 90.0]'
p7646
(lp7647
S'10'
p7648
aS'23.0'
p7649
asS'[147.0, 157.0]'
p7650
(lp7651
S'27'
p7652
aS'4.0'
p7653
asS'[92.0, 159.0]'
p7654
(lp7655
S'27'
p7656
aS'4.0'
p7657
asS'[170.0, 217.0]'
p7658
(lp7659
S'29'
p7660
aS'2.0'
p7661
asS'[55.0, 85.0]'
p7662
(lp7663
S'25'
p7664
aS'6.0'
p7665
asS'[299.0, 305.0]'
p7666
(lp7667
S'21'
p7668
aS'10.0'
p7669
asS'[88.0]'
p7670
(lp7671
S'23'
p7672
aS'8.0'
p7673
asS'[111.0, 170.0]'
p7674
(lp7675
S'21'
p7676
aS'10.0'
p7677
asS'[61.0, 67.0]'
p7678
(lp7679
S'28'
p7680
aS'3.0'
p7681
asS'[111.0, 148.0]'
p7682
(lp7683
S'28'
p7684
aS'3.0'
p7685
asS'[218.0, 269.0]'
p7686
(lp7687
S'29'
p7688
aS'2.0'
p7689
asS'[94.0, 142.0]'
p7690
(lp7691
S'29'
p7692
aS'2.0'
p7693
asS'[100.0, 124.0]'
p7694
(lp7695
S'29'
p7696
aS'2.0'
p7697
asS'[141.0, 192.0]'
p7698
(lp7699
S'26'
p7700
aS'5.0'
p7701
asS'[149.0, 205.0, 220.0]'
p7702
(lp7703
S'29'
p7704
aS'2.0'
p7705
asS'[21.0, 23.0, 47.0]'
p7706
(lp7707
S'27'
p7708
aS'4.0'
p7709
asS'[137.0, 305.0]'
p7710
(lp7711
S'28'
p7712
aS'3.0'
p7713
asS'[17.0, 108.0, 139.0]'
p7714
(lp7715
S'29'
p7716
aS'2.0'
p7717
asS'[66.0, 177.0]'
p7718
(lp7719
S'29'
p7720
aS'2.0'
p7721
asS'[56.0, 96.0, 178.0]'
p7722
(lp7723
S'29'
p7724
aS'2.0'
p7725
asS'[94.0, 140.0]'
p7726
(lp7727
S'28'
p7728
aS'3.0'
p7729
asS'[72.0, 150.0]'
p7730
(lp7731
S'29'
p7732
aS'2.0'
p7733
asS'[97.0, 99.0, 305.0]'
p7734
(lp7735
S'29'
p7736
aS'2.0'
p7737
asS'[26.0]'
p7738
(lp7739
S'27'
p7740
aS'4.0'
p7741
asS'[149.0]'
p7742
(lp7743
S'13'
p7744
aS'18.0'
p7745
asS'[5.0, 29.0]'
p7746
(lp7747
S'29'
p7748
aS'2.0'
p7749
asS'[82.0, 163.0, 177.0]'
p7750
(lp7751
S'29'
p7752
aS'2.0'
p7753
asS'[153.0, 219.0]'
p7754
(lp7755
S'27'
p7756
aS'4.0'
p7757
asS'[103.0, 201.0]'
p7758
(lp7759
S'29'
p7760
aS'2.0'
p7761
asS'[58.0, 114.0]'
p7762
(lp7763
S'24'
p7764
aS'7.0'
p7765
asS'[63.0, 88.0]'
p7766
(lp7767
S'27'
p7768
aS'4.0'
p7769
asS'[77.0, 146.0, 217.0]'
p7770
(lp7771
S'29'
p7772
aS'2.0'
p7773
asS'[125.0, 305.0]'
p7774
(lp7775
S'29'
p7776
aS'2.0'
p7777
asS'[195.0, 203.0, 207.0]'
p7778
(lp7779
S'29'
p7780
aS'2.0'
p7781
asS'[75.0, 76.0, 241.0]'
p7782
(lp7783
S'29'
p7784
aS'2.0'
p7785
asS'[20.0]'
p7786
(lp7787
S'21'
p7788
aS'10.0'
p7789
asS'[116.0, 179.0, 180.0]'
p7790
(lp7791
S'29'
p7792
aS'2.0'
p7793
asS'[116.0, 124.0]'
p7794
(lp7795
S'27'
p7796
aS'4.0'
p7797
asS'[106.0, 306.0]'
p7798
(lp7799
S'28'
p7800
aS'3.0'
p7801
asS'[48.0, 62.0, 74.0]'
p7802
(lp7803
S'29'
p7804
aS'2.0'
p7805
asS'[32.0, 305.0]'
p7806
(lp7807
S'28'
p7808
aS'3.0'
p7809
asS'[75.0, 76.0, 154.0]'
p7810
(lp7811
S'29'
p7812
aS'2.0'
p7813
asS'[72.0, 73.0, 76.0, 145.0, 192.0]'
p7814
(lp7815
S'29'
p7816
aS'2.0'
p7817
asS'[246.0, 278.0]'
p7818
(lp7819
S'20'
p7820
aS'11.0'
p7821
asS'[75.0, 187.0]'
p7822
(lp7823
S'29'
p7824
aS'2.0'
p7825
asS'[78.0, 155.0, 216.0]'
p7826
(lp7827
S'29'
p7828
aS'2.0'
p7829
asS'[51.0, 54.0]'
p7830
(lp7831
S'28'
p7832
aS'3.0'
p7833
asS'[22.0]'
p7834
(lp7835
S'20'
p7836
aS'11.0'
p7837
asS'[90.0, 101.0, 122.0]'
p7838
(lp7839
S'28'
p7840
aS'3.0'
p7841
asS'[166.0, 198.0]'
p7842
(lp7843
S'29'
p7844
aS'2.0'
p7845
asS'[2.0, 145.0]'
p7846
(lp7847
S'28'
p7848
aS'3.0'
p7849
asS'[186.0, 187.0]'
p7850
(lp7851
S'28'
p7852
aS'3.0'
p7853
asS'[24.0]'
p7854
(lp7855
S'19'
p7856
aS'12.0'
p7857
asS'[3.0, 21.0, 23.0, 47.0]'
p7858
(lp7859
S'29'
p7860
aS'2.0'
p7861
asS'[81.0, 217.0]'
p7862
(lp7863
S'24'
p7864
aS'7.0'
p7865
asS'[294.0, 305.0]'
p7866
(lp7867
S'26'
p7868
aS'5.0'
p7869
asS'[93.0, 135.0]'
p7870
(lp7871
S'29'
p7872
aS'2.0'
p7873
asS'[149.0, 220.0]'
p7874
(lp7875
S'29'
p7876
aS'2.0'
p7877
asS'[241.0, 278.0]'
p7878
(lp7879
S'27'
p7880
aS'4.0'
p7881
asS'[33.0, 43.0, 73.0]'
p7882
(lp7883
S'29'
p7884
aS'2.0'
p7885
asS'[8.0, 122.0, 305.0]'
p7886
(lp7887
S'28'
p7888
aS'3.0'
p7889
asS'[90.0, 130.0]'
p7890
(lp7891
S'29'
p7892
aS'2.0'
p7893
asS'[51.0, 61.0, 73.0]'
p7894
(lp7895
S'27'
p7896
aS'4.0'
p7897
asS'[46.0, 90.0]'
p7898
(lp7899
S'22'
p7900
aS'9.0'
p7901
asS'[81.0, 219.0]'
p7902
(lp7903
S'29'
p7904
aS'2.0'
p7905
asS'[73.0, 192.0, 306.0]'
p7906
(lp7907
S'28'
p7908
aS'3.0'
p7909
asS'[41.0, 136.0]'
p7910
(lp7911
S'29'
p7912
aS'2.0'
p7913
asS'[84.0, 110.0]'
p7914
(lp7915
S'27'
p7916
aS'4.0'
p7917
asS'[30.0, 36.0]'
p7918
(lp7919
S'29'
p7920
aS'2.0'
p7921
asS'[95.0, 103.0, 140.0]'
p7922
(lp7923
S'29'
p7924
aS'2.0'
p7925
asS'[58.0, 84.0, 114.0]'
p7926
(lp7927
S'29'
p7928
aS'2.0'
p7929
asS'[71.0, 216.0]'
p7930
(lp7931
S'29'
p7932
aS'2.0'
p7933
asS'[57.0, 87.0, 113.0]'
p7934
(lp7935
S'28'
p7936
aS'3.0'
p7937
asS'[117.0, 305.0]'
p7938
(lp7939
S'25'
p7940
aS'6.0'
p7941
asS'[263.0]'
p7942
(lp7943
S'23'
p7944
aS'8.0'
p7945
asS'[194.0, 218.0]'
p7946
(lp7947
S'29'
p7948
aS'2.0'
p7949
asS'[117.0, 193.0, 216.0]'
p7950
(lp7951
S'28'
p7952
aS'3.0'
p7953
asS'[183.0]'
p7954
(lp7955
S'29'
p7956
aS'2.0'
p7957
asS'[13.0, 43.0]'
p7958
(lp7959
S'25'
p7960
aS'6.0'
p7961
asS'[51.0, 109.0, 141.0]'
p7962
(lp7963
S'29'
p7964
aS'2.0'
p7965
asS'[71.0, 77.0, 146.0]'
p7966
(lp7967
S'29'
p7968
aS'2.0'
p7969
asS'[23.0]'
p7970
(lp7971
S'19'
p7972
aS'12.0'
p7973
asS'[168.0, 221.0]'
p7974
(lp7975
S'27'
p7976
aS'4.0'
p7977
asS'[75.0, 237.0]'
p7978
(lp7979
S'27'
p7980
aS'4.0'
p7981
asS'[75.0, 212.0]'
p7982
(lp7983
S'24'
p7984
aS'7.0'
p7985
asS'[71.0, 94.0]'
p7986
(lp7987
S'27'
p7988
aS'4.0'
p7989
asS'[39.0]'
p7990
(lp7991
S'19'
p7992
aS'12.0'
p7993
asS'[164.0, 306.0]'
p7994
(lp7995
S'29'
p7996
aS'2.0'
p7997
asS'[241.0, 279.0]'
p7998
(lp7999
S'29'
p8000
aS'2.0'
p8001
asS'[82.0, 147.0]'
p8002
(lp8003
S'29'
p8004
aS'2.0'
p8005
asS'[22.0, 118.0]'
p8006
(lp8007
S'20'
p8008
aS'11.0'
p8009
asS'[187.0, 189.0, 199.0]'
p8010
(lp8011
S'29'
p8012
aS'2.0'
p8013
asS'[78.0, 161.0]'
p8014
(lp8015
S'27'
p8016
aS'4.0'
p8017
asS'[270.0, 305.0]'
p8018
(lp8019
S'24'
p8020
aS'7.0'
p8021
asS'[57.0, 113.0]'
p8022
(lp8023
S'21'
p8024
aS'10.0'
p8025
asS'[153.0, 234.0]'
p8026
(lp8027
S'26'
p8028
aS'5.0'
p8029
asS'[115.0, 198.0]'
p8030
(lp8031
S'28'
p8032
aS'3.0'
p8033
asS'[181.0]'
p8034
(lp8035
S'25'
p8036
aS'6.0'
p8037
asS'[79.0, 221.0]'
p8038
(lp8039
S'27'
p8040
aS'4.0'
p8041
asS'[243.0, 305.0]'
p8042
(lp8043
S'23'
p8044
aS'8.0'
p8045
asS'[74.0, 141.0, 192.0]'
p8046
(lp8047
S'29'
p8048
aS'2.0'
p8049
asS'[72.0, 73.0, 217.0]'
p8050
(lp8051
S'28'
p8052
aS'3.0'
p8053
asS'[57.0, 87.0, 88.0]'
p8054
(lp8055
S'29'
p8056
aS'2.0'
p8057
asS'[6.0, 12.0, 41.0]'
p8058
(lp8059
S'29'
p8060
aS'2.0'
p8061
asS'[75.0, 76.0, 150.0]'
p8062
(lp8063
S'29'
p8064
aS'2.0'
p8065
asS'[270.0, 272.0]'
p8066
(lp8067
S'29'
p8068
aS'2.0'
p8069
asS'[167.0, 169.0, 251.0]'
p8070
(lp8071
S'29'
p8072
aS'2.0'
p8073
asS'[178.0, 270.0]'
p8074
(lp8075
S'29'
p8076
aS'2.0'
p8077
asS'[217.0]'
p8078
(lp8079
g195
aS'29.0'
p8080
asS'[51.0, 57.0, 88.0]'
p8081
(lp8082
S'29'
p8083
aS'2.0'
p8084
asS'[117.0, 234.0]'
p8085
(lp8086
S'25'
p8087
aS'6.0'
p8088
asS'[72.0, 195.0, 207.0]'
p8089
(lp8090
S'28'
p8091
aS'3.0'
p8092
asS'[182.0]'
p8093
(lp8094
S'24'
p8095
aS'7.0'
p8096
asS'[75.0, 178.0, 229.0]'
p8097
(lp8098
S'29'
p8099
aS'2.0'
p8100
asS'[52.0, 77.0, 184.0]'
p8101
(lp8102
S'29'
p8103
aS'2.0'
p8104
asS'[21.0]'
p8105
(lp8106
S'20'
p8107
aS'11.0'
p8108
asS'[254.0, 255.0, 305.0]'
p8109
(lp8110
S'29'
p8111
aS'2.0'
p8112
asS'[29.0]'
p8113
(lp8114
S'25'
p8115
aS'6.0'
p8116
asS'[74.0, 111.0, 156.0]'
p8117
(lp8118
S'29'
p8119
aS'2.0'
p8120
asS'[137.0]'
p8121
(lp8122
S'10'
p8123
aS'23.0'
p8124
asS'[189.0, 239.0]'
p8125
(lp8126
S'17'
p8127
aS'14.0'
p8128
asS'[98.0, 102.0, 305.0]'
p8129
(lp8130
S'29'
p8131
aS'2.0'
p8132
asS'[167.0]'
p8133
(lp8134
S'20'
p8135
aS'11.0'
p8136
asS'[34.0, 129.0]'
p8137
(lp8138
S'21'
p8139
aS'10.0'
p8140
asS'[2.0, 71.0]'
p8141
(lp8142
S'27'
p8143
aS'4.0'
p8144
asS'[178.0, 305.0]'
p8145
(lp8146
S'29'
p8147
aS'2.0'
p8148
asS'[73.0, 85.0]'
p8149
(lp8150
S'29'
p8151
aS'2.0'
p8152
asS'[6.0, 18.0, 41.0]'
p8153
(lp8154
S'29'
p8155
aS'2.0'
p8156
asS'[228.0]'
p8157
(lp8158
S'13'
p8159
aS'18.0'
p8160
asS'[95.0, 100.0]'
p8161
(lp8162
S'24'
p8163
aS'7.0'
p8164
asS'[104.0, 135.0]'
p8165
(lp8166
S'26'
p8167
aS'5.0'
p8168
asS'[13.0, 19.0]'
p8169
(lp8170
S'26'
p8171
aS'5.0'
p8172
asS'[96.0]'
p8173
(lp8174
S'15'
p8175
aS'16.0'
p8176
asS'[261.0]'
p8177
(lp8178
g2012
aS'70.0'
p8179
asS'[199.0, 272.0]'
p8180
(lp8181
S'24'
p8182
aS'7.0'
p8183
asS'[141.0, 143.0]'
p8184
(lp8185
S'23'
p8186
aS'8.0'
p8187
asS'[47.0, 72.0]'
p8188
(lp8189
S'28'
p8190
aS'3.0'
p8191
asS'[8.0, 305.0]'
p8192
(lp8193
S'28'
p8194
aS'3.0'
p8195
asS'[149.0, 193.0, 220.0]'
p8196
(lp8197
S'29'
p8198
aS'2.0'
p8199
asS'[55.0, 137.0]'
p8200
(lp8201
S'10'
p8202
aS'23.0'
p8203
asS'[71.0, 73.0, 145.0]'
p8204
(lp8205
S'29'
p8206
aS'2.0'
p8207
asS'[135.0]'
p8208
(lp8209
S'22'
p8210
aS'9.0'
p8211
asS'[17.0, 143.0]'
p8212
(lp8213
S'26'
p8214
aS'5.0'
p8215
asS'[100.0, 161.0]'
p8216
(lp8217
S'23'
p8218
aS'8.0'
p8219
asS'[43.0, 145.0]'
p8220
(lp8221
S'29'
p8222
aS'2.0'
p8223
asS'[233.0, 243.0, 281.0, 305.0]'
p8224
(lp8225
S'29'
p8226
aS'2.0'
p8227
asS'[180.0, 306.0]'
p8228
(lp8229
S'28'
p8230
aS'3.0'
p8231
asS'[13.0, 100.0]'
p8232
(lp8233
S'29'
p8234
aS'2.0'
p8235
asS'[77.0, 198.0, 240.0]'
p8236
(lp8237
S'29'
p8238
aS'2.0'
p8239
asS'[98.0, 131.0]'
p8240
(lp8241
S'10'
p8242
aS'23.0'
p8243
asS'[42.0, 216.0]'
p8244
(lp8245
S'10'
p8246
aS'23.0'
p8247
asS'[108.0, 305.0]'
p8248
(lp8249
S'29'
p8250
aS'2.0'
p8251
asS'[168.0, 220.0]'
p8252
(lp8253
S'24'
p8254
aS'7.0'
p8255
asS'[51.0, 154.0]'
p8256
(lp8257
S'27'
p8258
aS'4.0'
p8259
asS'[80.0, 210.0]'
p8260
(lp8261
S'29'
p8262
aS'2.0'
p8263
asS'[21.0, 23.0]'
p8264
(lp8265
S'27'
p8266
aS'4.0'
p8267
asS'[78.0, 149.0, 218.0]'
p8268
(lp8269
S'28'
p8270
aS'3.0'
p8271
asS'[205.0, 220.0]'
p8272
(lp8273
S'28'
p8274
aS'3.0'
p8275
asS'[116.0, 159.0]'
p8276
(lp8277
S'29'
p8278
aS'2.0'
p8279
asS'[77.0, 276.0]'
p8280
(lp8281
S'28'
p8282
aS'3.0'
p8283
asS'[178.0, 255.0, 305.0]'
p8284
(lp8285
S'29'
p8286
aS'2.0'
p8287
asS'[89.0, 129.0]'
p8288
(lp8289
S'29'
p8290
aS'2.0'
p8291
asS'[161.0]'
p8292
(lp8293
S'16'
p8294
aS'15.0'
p8295
asS'[66.0, 178.0, 221.0]'
p8296
(lp8297
S'29'
p8298
aS'2.0'
p8299
asS'[69.0, 198.0]'
p8300
(lp8301
S'28'
p8302
aS'3.0'
p8303
asS'[97.0, 101.0]'
p8304
(lp8305
S'21'
p8306
aS'10.0'
p8307
asS'[231.0, 305.0]'
p8308
(lp8309
S'25'
p8310
aS'6.0'
p8311
asS'[108.0, 139.0, 305.0]'
p8312
(lp8313
S'29'
p8314
aS'2.0'
p8315
asS'[126.0, 305.0]'
p8316
(lp8317
S'25'
p8318
aS'6.0'
p8319
asS'[144.0, 159.0]'
p8320
(lp8321
S'28'
p8322
aS'3.0'
p8323
asS'[72.0, 162.0]'
p8324
(lp8325
S'29'
p8326
aS'2.0'
p8327
asS'[180.0]'
p8328
(lp8329
S'12'
p8330
aS'19.0'
p8331
asS'[48.0, 93.0]'
p8332
(lp8333
S'29'
p8334
aS'2.0'
p8335
asS'[218.0, 270.0]'
p8336
(lp8337
S'29'
p8338
aS'2.0'
p8339
asS'[177.0, 229.0, 305.0]'
p8340
(lp8341
S'29'
p8342
aS'2.0'
p8343
asS'[117.0, 146.0]'
p8344
(lp8345
S'29'
p8346
aS'2.0'
p8347
asS'[69.0, 76.0]'
p8348
(lp8349
S'27'
p8350
aS'4.0'
p8351
asS'[87.0, 88.0]'
p8352
(lp8353
S'29'
p8354
aS'2.0'
p8355
asS'[190.0, 305.0]'
p8356
(lp8357
S'22'
p8358
aS'9.0'
p8359
asS'[82.0, 147.0, 157.0]'
p8360
(lp8361
S'29'
p8362
aS'2.0'
p8363
asS'[75.0, 215.0]'
p8364
(lp8365
S'28'
p8366
aS'3.0'
p8367
asS'[238.0, 281.0]'
p8368
(lp8369
S'29'
p8370
aS'2.0'
p8371
asS'[56.0, 178.0]'
p8372
(lp8373
S'25'
p8374
aS'6.0'
p8375
asS'[163.0]'
p8376
(lp8377
S'18'
p8378
aS'13.0'
p8379
asS'[120.0, 184.0]'
p8380
(lp8381
S'29'
p8382
aS'2.0'
p8383
asS'[186.0, 244.0]'
p8384
(lp8385
S'16'
p8386
aS'15.0'
p8387
asS'[75.0, 111.0]'
p8388
(lp8389
S'27'
p8390
aS'4.0'
p8391
asS'[71.0, 215.0]'
p8392
(lp8393
S'28'
p8394
aS'3.0'
p8395
asS'[45.0, 137.0]'
p8396
(lp8397
S'29'
p8398
aS'2.0'
p8399
asS'[100.0, 120.0]'
p8400
(lp8401
S'27'
p8402
aS'4.0'
p8403
asS'[119.0]'
p8404
(lp8405
g195
aS'29.0'
p8406
asS'[76.0, 78.0, 155.0]'
p8407
(lp8408
S'29'
p8409
aS'2.0'
p8410
asS'[71.0, 73.0, 74.0]'
p8411
(lp8412
S'28'
p8413
aS'3.0'
p8414
asS'[43.0]'
p8415
(lp8416
S'17'
p8417
aS'14.0'
p8418
asS'[76.0, 149.0, 216.0]'
p8419
(lp8420
S'28'
p8421
aS'3.0'
p8422
asS'[70.0]'
p8423
(lp8424
S'19'
p8425
aS'12.0'
p8426
asS'[35.0, 101.0]'
p8427
(lp8428
S'24'
p8429
aS'7.0'
p8430
asS'[76.0, 251.0]'
p8431
(lp8432
S'29'
p8433
aS'2.0'
p8434
asS'[188.0, 196.0, 305.0]'
p8435
(lp8436
S'29'
p8437
aS'2.0'
p8438
asS'[71.0, 77.0, 146.0, 217.0]'
p8439
(lp8440
S'29'
p8441
aS'2.0'
p8442
asS'[226.0, 234.0]'
p8443
(lp8444
S'26'
p8445
aS'5.0'
p8446
asS'[59.0]'
p8447
(lp8448
S'27'
p8449
aS'4.0'
p8450
asS'[115.0]'
p8451
(lp8452
S'13'
p8453
aS'18.0'
p8454
asS'[117.0]'
p8455
(lp8456
S'11'
p8457
aS'22.0'
p8458
asS'[115.0, 158.0, 200.0]'
p8459
(lp8460
S'28'
p8461
aS'3.0'
p8462
asS'[76.0, 155.0]'
p8463
(lp8464
S'29'
p8465
aS'2.0'
p8466
asS'[78.0, 117.0, 217.0]'
p8467
(lp8468
S'26'
p8469
aS'5.0'
p8470
asS'[76.0, 145.0, 192.0]'
p8471
(lp8472
S'27'
p8473
aS'4.0'
p8474
asS'[254.0, 255.0]'
p8475
(lp8476
S'29'
p8477
aS'2.0'
p8478
asS'[279.0]'
p8479
(lp8480
S'23'
p8481
aS'8.0'
p8482
asS'[7.0, 9.0, 305.0]'
p8483
(lp8484
S'28'
p8485
aS'3.0'
p8486
asS'[17.0, 108.0]'
p8487
(lp8488
S'29'
p8489
aS'2.0'
p8490
asS'[217.0, 218.0]'
p8491
(lp8492
S'27'
p8493
aS'4.0'
p8494
asS'[77.0, 169.0, 227.0]'
p8495
(lp8496
S'29'
p8497
aS'2.0'
p8498
asS'[58.0, 84.0, 110.0]'
p8499
(lp8500
S'28'
p8501
aS'3.0'
p8502
asS'[157.0, 178.0, 221.0]'
p8503
(lp8504
S'29'
p8505
aS'2.0'
p8506
asS'[2.0, 89.0]'
p8507
(lp8508
S'27'
p8509
aS'4.0'
p8510
asS'[55.0, 78.0, 198.0]'
p8511
(lp8512
S'28'
p8513
aS'3.0'
p8514
asS'[71.0, 127.0]'
p8515
(lp8516
S'27'
p8517
aS'4.0'
p8518
asS'[268.0, 270.0, 305.0]'
p8519
(lp8520
S'29'
p8521
aS'2.0'
p8522
asS'[74.0]'
p8523
(lp8524
g279
aS'25.0'
p8525
asS'[76.0]'
p8526
(lp8527
S'10'
p8528
aS'23.0'
p8529
asS'[76.0, 255.0]'
p8530
(lp8531
S'23'
p8532
aS'8.0'
p8533
asS'[153.0, 168.0, 220.0]'
p8534
(lp8535
S'27'
p8536
aS'4.0'
p8537
asS'[41.0]'
p8538
(lp8539
g279
aS'25.0'
p8540
asS'[74.0, 185.0]'
p8541
(lp8542
S'29'
p8543
aS'2.0'
p8544
asS'[75.0, 251.0, 252.0]'
p8545
(lp8546
S'29'
p8547
aS'2.0'
p8548
asS'[103.0, 124.0]'
p8549
(lp8550
S'27'
p8551
aS'4.0'
p8552
asS'[34.0, 74.0]'
p8553
(lp8554
S'29'
p8555
aS'2.0'
p8556
asS'[181.0, 198.0]'
p8557
(lp8558
S'28'
p8559
aS'3.0'
p8560
asS'[81.0, 82.0, 217.0]'
p8561
(lp8562
S'27'
p8563
aS'4.0'
p8564
asS'[151.0, 153.0, 169.0]'
p8565
(lp8566
S'29'
p8567
aS'2.0'
p8568
asS'[76.0, 78.0, 236.0]'
p8569
(lp8570
S'27'
p8571
aS'4.0'
p8572
asS'[96.0, 124.0]'
p8573
(lp8574
S'28'
p8575
aS'3.0'
p8576
as.