(dp0
S'[61.0, 109.0]'
p1
(lp2
S'24'
p3
aS'7.0'
p4
asS'[96.0, 120.0]'
p5
(lp6
S'27'
p7
aS'4.0'
p8
asS'[29.0, 305.0]'
p9
(lp10
S'25'
p11
aS'6.0'
p12
asS'[7.0, 121.0, 305.0]'
p13
(lp14
S'28'
p15
aS'3.0'
p16
asS'[71.0, 72.0, 73.0, 74.0]'
p17
(lp18
S'29'
p19
aS'2.0'
p20
asS'[74.0, 79.0, 81.0]'
p21
(lp22
S'29'
p23
aS'2.0'
p24
asS'[73.0, 142.0]'
p25
(lp26
S'28'
p27
aS'3.0'
p28
asS'[240.0, 277.0]'
p29
(lp30
S'22'
p31
aS'9.0'
p32
asS'[74.0, 75.0, 155.0]'
p33
(lp34
S'29'
p35
aS'2.0'
p36
asS'[52.0, 74.0, 154.0]'
p37
(lp38
S'29'
p39
aS'2.0'
p40
asS'[117.0, 192.0]'
p41
(lp42
S'27'
p43
aS'4.0'
p44
asS'[110.0, 112.0]'
p45
(lp46
S'27'
p47
aS'4.0'
p48
asS'[71.0, 74.0, 228.0]'
p49
(lp50
S'29'
p51
aS'2.0'
p52
asS'[72.0, 76.0, 237.0]'
p53
(lp54
S'28'
p55
aS'3.0'
p56
asS'[82.0, 219.0]'
p57
(lp58
S'24'
p59
aS'7.0'
p60
asS'[90.0, 198.0]'
p61
(lp62
S'29'
p63
aS'2.0'
p64
asS'[119.0, 158.0]'
p65
(lp66
S'29'
p67
aS'2.0'
p68
asS'[81.0, 217.0, 218.0]'
p69
(lp70
S'29'
p71
aS'2.0'
p72
asS'[111.0]'
p73
(lp74
S'26'
p75
aS'5.0'
p76
asS'[71.0, 73.0, 216.0]'
p77
(lp78
S'29'
p79
aS'2.0'
p80
asS'[189.0, 195.0, 244.0, 305.0]'
p81
(lp82
S'29'
p83
aS'2.0'
p84
asS'[48.0, 82.0]'
p85
(lp86
S'29'
p87
aS'2.0'
p88
asS'[71.0, 75.0, 234.0]'
p89
(lp90
S'29'
p91
aS'2.0'
p92
asS'[72.0, 76.0, 218.0, 219.0]'
p93
(lp94
S'26'
p95
aS'5.0'
p96
asS'[11.0, 23.0]'
p97
(lp98
S'22'
p99
aS'9.0'
p100
asS'[172.0, 217.0]'
p101
(lp102
S'25'
p103
aS'6.0'
p104
asS'[74.0, 81.0, 148.0]'
p105
(lp106
S'27'
p107
aS'4.0'
p108
asS'[1.0, 78.0, 159.0]'
p109
(lp110
S'29'
p111
aS'2.0'
p112
asS'[56.0, 136.0]'
p113
(lp114
S'26'
p115
aS'5.0'
p116
asS'[4.0, 132.0]'
p117
(lp118
S'29'
p119
aS'2.0'
p120
asS'[165.0, 166.0]'
p121
(lp122
S'28'
p123
aS'3.0'
p124
asS'[167.0, 305.0]'
p125
(lp126
S'10'
p127
aS'23.0'
p128
asS'[153.0, 218.0, 305.0]'
p129
(lp130
S'29'
p131
aS'2.0'
p132
asS'[226.0, 305.0]'
p133
(lp134
S'16'
p135
aS'15.0'
p136
asS'[194.0, 223.0]'
p137
(lp138
S'28'
p139
aS'3.0'
p140
asS'[89.0, 98.0]'
p141
(lp142
S'29'
p143
aS'2.0'
p144
asS'[215.0]'
p145
(lp146
S'10'
p147
aS'23.0'
p148
asS'[74.0, 96.0, 142.0]'
p149
(lp150
S'27'
p151
aS'4.0'
p152
asS'[149.0, 206.0]'
p153
(lp154
S'28'
p155
aS'3.0'
p156
asS'[62.0, 72.0, 78.0]'
p157
(lp158
S'29'
p159
aS'2.0'
p160
asS'[151.0, 277.0, 305.0]'
p161
(lp162
S'24'
p163
aS'7.0'
p164
asS'[218.0, 219.0]'
p165
(lp166
S'26'
p167
aS'5.0'
p168
asS'[7.0, 305.0]'
p169
(lp170
S'21'
p171
aS'10.0'
p172
asS'[52.0, 141.0]'
p173
(lp174
S'29'
p175
aS'2.0'
p176
asS'[46.0, 56.0, 159.0]'
p177
(lp178
S'29'
p179
aS'2.0'
p180
asS'[74.0, 148.0]'
p181
(lp182
S'23'
p183
aS'8.0'
p184
asS'[71.0, 72.0, 154.0]'
p185
(lp186
S'28'
p187
aS'3.0'
p188
asS'[72.0, 217.0, 218.0, 219.0]'
p189
(lp190
S'29'
p191
aS'2.0'
p192
asS'[10.0, 16.0]'
p193
(lp194
S'26'
p195
aS'5.0'
p196
asS'[72.0, 193.0, 200.0]'
p197
(lp198
S'29'
p199
aS'2.0'
p200
asS'[74.0, 219.0]'
p201
(lp202
S'28'
p203
aS'3.0'
p204
asS'[245.0, 261.0]'
p205
(lp206
S'16'
p207
aS'15.0'
p208
asS'[194.0, 219.0]'
p209
(lp210
S'29'
p211
aS'2.0'
p212
asS'[136.0]'
p213
(lp214
S'22'
p215
aS'9.0'
p216
asS'[73.0, 74.0, 222.0]'
p217
(lp218
S'29'
p219
aS'2.0'
p220
asS'[78.0, 155.0]'
p221
(lp222
S'29'
p223
aS'2.0'
p224
asS'[74.0, 77.0]'
p225
(lp226
S'28'
p227
aS'3.0'
p228
asS'[158.0, 192.0]'
p229
(lp230
S'29'
p231
aS'2.0'
p232
asS'[172.0, 174.0, 216.0]'
p233
(lp234
S'29'
p235
aS'2.0'
p236
asS'[74.0, 172.0, 216.0]'
p237
(lp238
S'27'
p239
aS'4.0'
p240
asS'[96.0, 99.0, 120.0]'
p241
(lp242
S'29'
p243
aS'2.0'
p244
asS'[17.0, 78.0, 91.0]'
p245
(lp246
S'26'
p247
aS'5.0'
p248
asS'[99.0, 123.0, 305.0]'
p249
(lp250
S'26'
p251
aS'5.0'
p252
asS'[198.0, 205.0]'
p253
(lp254
S'29'
p255
aS'2.0'
p256
asS'[183.0, 198.0]'
p257
(lp258
S'28'
p259
aS'3.0'
p260
asS'[213.0]'
p261
(lp262
S'25'
p263
aS'6.0'
p264
asS'[255.0, 305.0]'
p265
(lp266
S'21'
p267
aS'10.0'
p268
asS'[37.0, 78.0]'
p269
(lp270
S'26'
p271
aS'5.0'
p272
asS'[71.0, 72.0, 73.0, 155.0, 216.0]'
p273
(lp274
S'29'
p275
aS'2.0'
p276
asS'[187.0, 195.0]'
p277
(lp278
S'28'
p279
aS'3.0'
p280
asS'[143.0, 158.0]'
p281
(lp282
S'26'
p283
aS'5.0'
p284
asS'[211.0]'
p285
(lp286
S'29'
p287
aS'2.0'
p288
asS'[85.0, 89.0]'
p289
(lp290
S'28'
p291
aS'3.0'
p292
asS'[45.0, 69.0]'
p293
(lp294
S'28'
p295
aS'3.0'
p296
asS'[72.0, 215.0, 218.0]'
p297
(lp298
S'28'
p299
aS'3.0'
p300
asS'[8.0, 121.0, 305.0]'
p301
(lp302
S'28'
p303
aS'3.0'
p304
asS'[74.0, 193.0, 306.0]'
p305
(lp306
S'28'
p307
aS'3.0'
p308
asS'[46.0, 159.0]'
p309
(lp310
S'29'
p311
aS'2.0'
p312
asS'[13.0, 19.0, 118.0]'
p313
(lp314
S'28'
p315
aS'3.0'
p316
asS'[72.0, 195.0, 207.0, 216.0]'
p317
(lp318
S'29'
p319
aS'2.0'
p320
asS'[189.0, 260.0]'
p321
(lp322
S'16'
p323
aS'15.0'
p324
asS'[48.0, 74.0]'
p325
(lp326
S'29'
p327
aS'2.0'
p328
asS'[270.0, 278.0]'
p329
(lp330
S'27'
p331
aS'4.0'
p332
asS'[151.0, 276.0, 305.0]'
p333
(lp334
S'11'
p335
aS'22.0'
p336
asS'[80.0, 147.0, 220.0]'
p337
(lp338
S'29'
p339
aS'2.0'
p340
asS'[73.0, 74.0, 155.0, 306.0]'
p341
(lp342
S'29'
p343
aS'2.0'
p344
asS'[71.0, 74.0]'
p345
(lp346
S'8'
p347
aS'25.0'
p348
asS'[48.0, 62.0, 74.0, 75.0]'
p349
(lp350
S'29'
p351
aS'2.0'
p352
asS'[80.0, 82.0, 147.0]'
p353
(lp354
S'29'
p355
aS'2.0'
p356
asS'[74.0, 222.0]'
p357
(lp358
S'28'
p359
aS'3.0'
p360
asS'[240.0, 279.0]'
p361
(lp362
S'24'
p363
aS'7.0'
p364
asS'[73.0, 222.0]'
p365
(lp366
S'27'
p367
aS'4.0'
p368
asS'[247.0, 266.0]'
p369
(lp370
S'25'
p371
aS'6.0'
p372
asS'[79.0, 193.0]'
p373
(lp374
S'28'
p375
aS'3.0'
p376
asS'[104.0, 202.0]'
p377
(lp378
S'28'
p379
aS'3.0'
p380
asS'[193.0, 199.0, 306.0]'
p381
(lp382
S'29'
p383
aS'2.0'
p384
asS'[52.0, 95.0, 141.0]'
p385
(lp386
S'29'
p387
aS'2.0'
p388
asS'[250.0, 305.0]'
p389
(lp390
S'21'
p391
aS'10.0'
p392
asS'[144.0, 172.0]'
p393
(lp394
S'28'
p395
aS'3.0'
p396
asS'[206.0, 208.0]'
p397
(lp398
S'26'
p399
aS'5.0'
p400
asS'[71.0, 186.0]'
p401
(lp402
S'22'
p403
aS'9.0'
p404
asS'[72.0, 207.0]'
p405
(lp406
S'25'
p407
aS'6.0'
p408
asS'[71.0, 207.0, 216.0]'
p409
(lp410
S'24'
p411
aS'7.0'
p412
asS'[143.0, 144.0, 159.0]'
p413
(lp414
S'29'
p415
aS'2.0'
p416
asS'[71.0, 74.0, 75.0, 155.0]'
p417
(lp418
S'29'
p419
aS'2.0'
p420
asS'[233.0, 305.0]'
p421
(lp422
S'16'
p423
aS'15.0'
p424
asS'[198.0, 244.0]'
p425
(lp426
S'29'
p427
aS'2.0'
p428
asS'[77.0, 82.0]'
p429
(lp430
S'27'
p431
aS'4.0'
p432
asS'[172.0, 173.0, 216.0]'
p433
(lp434
S'29'
p435
aS'2.0'
p436
asS'[278.0, 305.0]'
p437
(lp438
g347
aS'25.0'
p439
asS'[45.0, 61.0, 89.0]'
p440
(lp441
S'28'
p442
aS'3.0'
p443
asS'[252.0, 305.0]'
p444
(lp445
S'3'
p446
aS'31.0'
p447
asS'[212.0]'
p448
(lp449
S'26'
p450
aS'5.0'
p451
asS'[115.0, 200.0]'
p452
(lp453
S'29'
p454
aS'2.0'
p455
asS'[71.0, 73.0, 230.0]'
p456
(lp457
S'29'
p458
aS'2.0'
p459
asS'[132.0]'
p460
(lp461
S'28'
p462
aS'3.0'
p463
asS'[82.0, 218.0, 219.0]'
p464
(lp465
S'26'
p466
aS'5.0'
p467
asS'[80.0, 111.0, 147.0]'
p468
(lp469
S'29'
p470
aS'2.0'
p471
asS'[11.0, 26.0]'
p472
(lp473
S'27'
p474
aS'4.0'
p475
asS'[77.0, 198.0, 216.0]'
p476
(lp477
S'29'
p478
aS'2.0'
p479
asS'[68.0, 110.0, 112.0]'
p480
(lp481
S'29'
p482
aS'2.0'
p483
asS'[75.0, 163.0, 178.0]'
p484
(lp485
S'28'
p486
aS'3.0'
p487
asS'[72.0, 73.0, 76.0, 225.0]'
p488
(lp489
S'29'
p490
aS'2.0'
p491
asS'[247.0, 266.0, 305.0]'
p492
(lp493
S'25'
p494
aS'6.0'
p495
asS'[245.0, 261.0, 305.0]'
p496
(lp497
S'16'
p498
aS'15.0'
p499
asS'[5.0, 305.0]'
p500
(lp501
S'27'
p502
aS'4.0'
p503
asS'[76.0, 150.0]'
p504
(lp505
S'28'
p506
aS'3.0'
p507
asS'[153.0, 218.0]'
p508
(lp509
S'29'
p510
aS'2.0'
p511
asS'[205.0, 220.0]'
p512
(lp513
S'29'
p514
aS'2.0'
p515
asS'[77.0, 146.0]'
p516
(lp517
S'26'
p518
aS'5.0'
p519
asS'[230.0]'
p520
(lp521
S'15'
p522
aS'16.0'
p523
asS'[72.0, 74.0, 219.0]'
p524
(lp525
S'29'
p526
aS'2.0'
p527
asS'[72.0, 76.0, 82.0, 219.0]'
p528
(lp529
S'29'
p530
aS'2.0'
p531
asS'[56.0]'
p532
(lp533
S'22'
p534
aS'9.0'
p535
asS'[188.0]'
p536
(lp537
S'5'
p538
aS'29.0'
p539
asS'[75.0, 255.0]'
p540
(lp541
S'29'
p542
aS'2.0'
p543
asS'[15.0, 118.0]'
p544
(lp545
S'29'
p546
aS'2.0'
p547
asS'[71.0, 72.0, 195.0, 207.0, 216.0]'
p548
(lp549
S'29'
p550
aS'2.0'
p551
asS'[173.0, 216.0]'
p552
(lp553
S'29'
p554
aS'2.0'
p555
asS'[242.0, 247.0, 305.0]'
p556
(lp557
S'27'
p558
aS'4.0'
p559
asS'[124.0, 200.0]'
p560
(lp561
S'27'
p562
aS'4.0'
p563
asS'[192.0, 217.0]'
p564
(lp565
S'27'
p566
aS'4.0'
p567
asS'[15.0, 27.0]'
p568
(lp569
S'26'
p570
aS'5.0'
p571
asS'[46.0, 86.0, 119.0]'
p572
(lp573
S'29'
p574
aS'2.0'
p575
asS'[218.0, 219.0, 269.0, 277.0]'
p576
(lp577
S'29'
p578
aS'2.0'
p579
asS'[71.0, 75.0, 236.0]'
p580
(lp581
S'27'
p582
aS'4.0'
p583
asS'[48.0, 80.0]'
p584
(lp585
S'29'
p586
aS'2.0'
p587
asS'[246.0, 264.0, 305.0]'
p588
(lp589
S'25'
p590
aS'6.0'
p591
asS'[74.0, 95.0, 141.0]'
p592
(lp593
S'28'
p594
aS'3.0'
p595
asS'[71.0, 72.0, 217.0]'
p596
(lp597
S'28'
p598
aS'3.0'
p599
asS'[231.0, 279.0]'
p600
(lp601
S'29'
p602
aS'2.0'
p603
asS'[74.0, 81.0, 218.0, 219.0]'
p604
(lp605
S'29'
p606
aS'2.0'
p607
asS'[143.0]'
p608
(lp609
S'25'
p610
aS'6.0'
p611
asS'[113.0]'
p612
(lp613
S'18'
p614
aS'13.0'
p615
asS'[71.0, 81.0, 174.0, 216.0]'
p616
(lp617
S'29'
p618
aS'2.0'
p619
asS'[37.0, 102.0, 121.0]'
p620
(lp621
S'29'
p622
aS'2.0'
p623
asS'[193.0, 199.0]'
p624
(lp625
S'29'
p626
aS'2.0'
p627
asS'[93.0, 96.0]'
p628
(lp629
S'29'
p630
aS'2.0'
p631
asS'[116.0, 120.0]'
p632
(lp633
S'28'
p634
aS'3.0'
p635
asS'[78.0, 251.0]'
p636
(lp637
S'29'
p638
aS'2.0'
p639
asS'[71.0, 103.0]'
p640
(lp641
S'16'
p642
aS'15.0'
p643
asS'[174.0, 217.0, 219.0]'
p644
(lp645
S'29'
p646
aS'2.0'
p647
asS'[151.0, 276.0]'
p648
(lp649
S'11'
p650
aS'22.0'
p651
asS'[71.0, 75.0, 150.0]'
p652
(lp653
S'28'
p654
aS'3.0'
p655
asS'[1.0, 72.0, 78.0]'
p656
(lp657
S'29'
p658
aS'2.0'
p659
asS'[9.0, 121.0, 305.0]'
p660
(lp661
S'23'
p662
aS'8.0'
p663
asS'[73.0, 74.0, 306.0]'
p664
(lp665
S'29'
p666
aS'2.0'
p667
asS'[193.0, 200.0]'
p668
(lp669
S'29'
p670
aS'2.0'
p671
asS'[56.0, 86.0, 119.0]'
p672
(lp673
S'29'
p674
aS'2.0'
p675
asS'[82.0, 216.0]'
p676
(lp677
S'29'
p678
aS'2.0'
p679
asS'[89.0, 145.0]'
p680
(lp681
S'28'
p682
aS'3.0'
p683
asS'[128.0, 214.0]'
p684
(lp685
S'28'
p686
aS'3.0'
p687
asS'[71.0, 77.0, 240.0]'
p688
(lp689
S'29'
p690
aS'2.0'
p691
asS'[84.0]'
p692
(lp693
S'22'
p694
aS'9.0'
p695
asS'[41.0, 77.0]'
p696
(lp697
S'26'
p698
aS'5.0'
p699
asS'[174.0, 178.0]'
p700
(lp701
S'29'
p702
aS'2.0'
p703
asS'[28.0, 32.0]'
p704
(lp705
S'29'
p706
aS'2.0'
p707
asS'[72.0]'
p708
(lp709
S'0'
p710
aS'70.0'
p711
asS'[268.0, 305.0]'
p712
(lp713
S'27'
p714
aS'4.0'
p715
asS'[35.0, 78.0]'
p716
(lp717
S'28'
p718
aS'3.0'
p719
asS'[72.0, 203.0]'
p720
(lp721
S'27'
p722
aS'4.0'
p723
asS'[46.0, 84.0]'
p724
(lp725
S'28'
p726
aS'3.0'
p727
asS'[12.0, 26.0]'
p728
(lp729
S'28'
p730
aS'3.0'
p731
asS'[165.0, 168.0, 305.0]'
p732
(lp733
S'29'
p734
aS'2.0'
p735
asS'[89.0, 101.0, 122.0]'
p736
(lp737
S'25'
p738
aS'6.0'
p739
asS'[229.0]'
p740
(lp741
S'15'
p742
aS'16.0'
p743
asS'[71.0, 198.0, 217.0]'
p744
(lp745
S'28'
p746
aS'3.0'
p747
asS'[74.0, 95.0]'
p748
(lp749
S'28'
p750
aS'3.0'
p751
asS'[141.0]'
p752
(lp753
S'26'
p754
aS'5.0'
p755
asS'[5.0, 29.0, 305.0]'
p756
(lp757
S'29'
p758
aS'2.0'
p759
asS'[57.0, 87.0, 109.0]'
p760
(lp761
S'29'
p762
aS'2.0'
p763
asS'[40.0, 170.0]'
p764
(lp765
S'28'
p766
aS'3.0'
p767
asS'[71.0, 179.0, 198.0]'
p768
(lp769
S'29'
p770
aS'2.0'
p771
asS'[143.0, 144.0]'
p772
(lp773
S'29'
p774
aS'2.0'
p775
asS'[13.0, 27.0]'
p776
(lp777
S'29'
p778
aS'2.0'
p779
asS'[148.0, 178.0]'
p780
(lp781
S'29'
p782
aS'2.0'
p783
asS'[187.0, 189.0, 195.0]'
p784
(lp785
S'29'
p786
aS'2.0'
p787
asS'[62.0, 74.0, 157.0]'
p788
(lp789
S'29'
p790
aS'2.0'
p791
asS'[45.0, 119.0]'
p792
(lp793
S'29'
p794
aS'2.0'
p795
asS'[8.0, 26.0, 305.0]'
p796
(lp797
S'29'
p798
aS'2.0'
p799
asS'[186.0, 305.0]'
p800
(lp801
S'16'
p802
aS'15.0'
p803
asS'[71.0, 72.0, 216.0, 226.0]'
p804
(lp805
S'29'
p806
aS'2.0'
p807
asS'[243.0, 280.0]'
p808
(lp809
S'22'
p810
aS'9.0'
p811
asS'[68.0, 221.0]'
p812
(lp813
S'27'
p814
aS'4.0'
p815
asS'[110.0, 221.0]'
p816
(lp817
S'24'
p818
aS'7.0'
p819
asS'[71.0, 72.0, 192.0, 200.0]'
p820
(lp821
S'29'
p822
aS'2.0'
p823
asS'[174.0, 217.0, 218.0]'
p824
(lp825
S'29'
p826
aS'2.0'
p827
asS'[86.0]'
p828
(lp829
S'27'
p830
aS'4.0'
p831
asS'[73.0, 155.0, 216.0]'
p832
(lp833
S'29'
p834
aS'2.0'
p835
asS'[243.0, 282.0]'
p836
(lp837
S'24'
p838
aS'7.0'
p839
asS'[125.0, 185.0]'
p840
(lp841
S'29'
p842
aS'2.0'
p843
asS'[269.0, 277.0, 305.0]'
p844
(lp845
S'29'
p846
aS'2.0'
p847
asS'[13.0, 118.0, 143.0]'
p848
(lp849
S'29'
p850
aS'2.0'
p851
asS'[169.0]'
p852
(lp853
S'10'
p854
aS'23.0'
p855
asS'[71.0, 72.0, 215.0]'
p856
(lp857
S'28'
p858
aS'3.0'
p859
asS'[46.0, 56.0, 84.0, 86.0]'
p860
(lp861
S'29'
p862
aS'2.0'
p863
asS'[218.0, 219.0, 269.0]'
p864
(lp865
S'29'
p866
aS'2.0'
p867
asS'[228.0, 305.0]'
p868
(lp869
S'16'
p870
aS'15.0'
p871
asS'[188.0, 195.0]'
p872
(lp873
S'26'
p874
aS'5.0'
p875
asS'[73.0, 156.0]'
p876
(lp877
S'21'
p878
aS'10.0'
p879
asS'[90.0, 145.0]'
p880
(lp881
S'29'
p882
aS'2.0'
p883
asS'[281.0]'
p884
(lp885
g347
aS'25.0'
p886
asS'[81.0, 148.0]'
p887
(lp888
S'27'
p889
aS'4.0'
p890
asS'[73.0, 155.0]'
p891
(lp892
S'27'
p893
aS'4.0'
p894
asS'[41.0, 120.0]'
p895
(lp896
S'29'
p897
aS'2.0'
p898
asS'[71.0, 198.0, 216.0]'
p899
(lp900
S'28'
p901
aS'3.0'
p902
asS'[71.0, 74.0, 75.0, 155.0, 216.0]'
p903
(lp904
S'29'
p905
aS'2.0'
p906
asS'[82.0, 157.0]'
p907
(lp908
S'29'
p909
aS'2.0'
p910
asS'[11.0, 29.0]'
p911
(lp912
S'28'
p913
aS'3.0'
p914
asS'[232.0]'
p915
(lp916
S'15'
p917
aS'16.0'
p918
asS'[60.0]'
p919
(lp920
S'21'
p921
aS'10.0'
p922
asS'[16.0, 27.0]'
p923
(lp924
S'29'
p925
aS'2.0'
p926
asS'[72.0, 73.0, 74.0, 193.0, 216.0]'
p927
(lp928
S'29'
p929
aS'2.0'
p930
asS'[254.0, 278.0, 305.0]'
p931
(lp932
S'29'
p933
aS'2.0'
p934
asS'[71.0, 72.0, 74.0, 228.0]'
p935
(lp936
S'29'
p937
aS'2.0'
p938
asS'[243.0, 281.0, 305.0]'
p939
(lp940
S'11'
p941
aS'22.0'
p942
asS'[247.0, 256.0]'
p943
(lp944
S'23'
p945
aS'8.0'
p946
asS'[81.0, 174.0, 217.0]'
p947
(lp948
S'29'
p949
aS'2.0'
p950
asS'[252.0, 276.0, 305.0]'
p951
(lp952
S'29'
p953
aS'2.0'
p954
asS'[112.0, 147.0, 148.0]'
p955
(lp956
S'29'
p957
aS'2.0'
p958
asS'[95.0, 177.0, 305.0]'
p959
(lp960
S'29'
p961
aS'2.0'
p962
asS'[71.0, 72.0, 74.0, 192.0, 217.0]'
p963
(lp964
S'29'
p965
aS'2.0'
p966
asS'[127.0, 137.0]'
p967
(lp968
S'28'
p969
aS'3.0'
p970
asS'[216.0, 226.0]'
p971
(lp972
S'29'
p973
aS'2.0'
p974
asS'[147.0]'
p975
(lp976
S'25'
p977
aS'6.0'
p978
asS'[71.0, 72.0, 204.0, 217.0]'
p979
(lp980
S'28'
p981
aS'3.0'
p982
asS'[72.0, 74.0, 230.0]'
p983
(lp984
S'29'
p985
aS'2.0'
p986
asS'[265.0, 305.0]'
p987
(lp988
S'13'
p989
aS'18.0'
p990
asS'[96.0, 116.0, 140.0]'
p991
(lp992
S'29'
p993
aS'2.0'
p994
asS'[123.0, 200.0]'
p995
(lp996
S'29'
p997
aS'2.0'
p998
asS'[25.0, 135.0]'
p999
(lp1000
S'27'
p1001
aS'4.0'
p1002
asS'[71.0, 81.0, 217.0]'
p1003
(lp1004
S'29'
p1005
aS'2.0'
p1006
asS'[71.0, 75.0, 81.0, 216.0]'
p1007
(lp1008
S'29'
p1009
aS'2.0'
p1010
asS'[73.0, 76.0, 155.0, 216.0]'
p1011
(lp1012
S'29'
p1013
aS'2.0'
p1014
asS'[48.0, 52.0, 62.0, 74.0]'
p1015
(lp1016
S'29'
p1017
aS'2.0'
p1018
asS'[71.0, 74.0, 192.0, 217.0]'
p1019
(lp1020
S'29'
p1021
aS'2.0'
p1022
asS'[95.0, 104.0]'
p1023
(lp1024
S'27'
p1025
aS'4.0'
p1026
asS'[227.0]'
p1027
(lp1028
S'16'
p1029
aS'15.0'
p1030
asS'[225.0]'
p1031
(lp1032
S'15'
p1033
aS'16.0'
p1034
asS'[27.0, 32.0]'
p1035
(lp1036
S'29'
p1037
aS'2.0'
p1038
asS'[123.0, 166.0, 305.0]'
p1039
(lp1040
S'29'
p1041
aS'2.0'
p1042
asS'[51.0, 61.0]'
p1043
(lp1044
S'26'
p1045
aS'5.0'
p1046
asS'[107.0, 141.0]'
p1047
(lp1048
S'29'
p1049
aS'2.0'
p1050
asS'[79.0, 119.0]'
p1051
(lp1052
S'28'
p1053
aS'3.0'
p1054
asS'[73.0, 74.0, 172.0, 222.0]'
p1055
(lp1056
S'29'
p1057
aS'2.0'
p1058
asS'[71.0, 72.0, 73.0, 230.0]'
p1059
(lp1060
S'29'
p1061
aS'2.0'
p1062
asS'[71.0, 145.0, 198.0]'
p1063
(lp1064
S'28'
p1065
aS'3.0'
p1066
asS'[66.0]'
p1067
(lp1068
S'18'
p1069
aS'13.0'
p1070
asS'[121.0]'
p1071
(lp1072
S'19'
p1073
aS'12.0'
p1074
asS'[256.0, 280.0, 305.0]'
p1075
(lp1076
S'29'
p1077
aS'2.0'
p1078
asS'[150.0, 172.0]'
p1079
(lp1080
S'29'
p1081
aS'2.0'
p1082
asS'[73.0, 74.0, 95.0]'
p1083
(lp1084
S'29'
p1085
aS'2.0'
p1086
asS'[219.0, 305.0]'
p1087
(lp1088
S'24'
p1089
aS'7.0'
p1090
asS'[2.0, 71.0, 77.0]'
p1091
(lp1092
S'28'
p1093
aS'3.0'
p1094
asS'[198.0, 240.0]'
p1095
(lp1096
S'28'
p1097
aS'3.0'
p1098
asS'[90.0, 118.0]'
p1099
(lp1100
S'22'
p1101
aS'9.0'
p1102
asS'[71.0, 164.0]'
p1103
(lp1104
S'29'
p1105
aS'2.0'
p1106
asS'[38.0, 107.0]'
p1107
(lp1108
S'28'
p1109
aS'3.0'
p1110
asS'[245.0, 253.0]'
p1111
(lp1112
S'23'
p1113
aS'8.0'
p1114
asS'[2.0, 89.0, 91.0]'
p1115
(lp1116
S'28'
p1117
aS'3.0'
p1118
asS'[72.0, 74.0, 193.0, 217.0]'
p1119
(lp1120
S'29'
p1121
aS'2.0'
p1122
asS'[92.0, 120.0]'
p1123
(lp1124
S'25'
p1125
aS'6.0'
p1126
asS'[88.0, 114.0]'
p1127
(lp1128
S'22'
p1129
aS'9.0'
p1130
asS'[116.0, 180.0]'
p1131
(lp1132
S'11'
p1133
aS'22.0'
p1134
asS'[62.0]'
p1135
(lp1136
S'22'
p1137
aS'9.0'
p1138
asS'[19.0, 23.0]'
p1139
(lp1140
S'29'
p1141
aS'2.0'
p1142
asS'[72.0, 229.0]'
p1143
(lp1144
S'27'
p1145
aS'4.0'
p1146
asS'[90.0, 102.0, 121.0]'
p1147
(lp1148
S'24'
p1149
aS'7.0'
p1150
asS'[233.0, 281.0]'
p1151
(lp1152
S'29'
p1153
aS'2.0'
p1154
asS'[123.0]'
p1155
(lp1156
S'26'
p1157
aS'5.0'
p1158
asS'[79.0, 80.0]'
p1159
(lp1160
S'29'
p1161
aS'2.0'
p1162
asS'[71.0, 72.0, 74.0, 225.0]'
p1163
(lp1164
S'29'
p1165
aS'2.0'
p1166
asS'[103.0, 136.0]'
p1167
(lp1168
S'29'
p1169
aS'2.0'
p1170
asS'[150.0, 153.0]'
p1171
(lp1172
S'29'
p1173
aS'2.0'
p1174
asS'[277.0, 305.0]'
p1175
(lp1176
g347
aS'25.0'
p1177
asS'[74.0, 81.0, 217.0]'
p1178
(lp1179
S'28'
p1180
aS'3.0'
p1181
asS'[72.0, 173.0, 219.0]'
p1182
(lp1183
S'29'
p1184
aS'2.0'
p1185
asS'[43.0, 119.0, 158.0]'
p1186
(lp1187
S'29'
p1188
aS'2.0'
p1189
asS'[3.0, 9.0]'
p1190
(lp1191
S'29'
p1192
aS'2.0'
p1193
asS'[76.0, 155.0, 216.0]'
p1194
(lp1195
S'29'
p1196
aS'2.0'
p1197
asS'[71.0, 75.0, 235.0]'
p1198
(lp1199
S'25'
p1200
aS'6.0'
p1201
asS'[101.0, 160.0]'
p1202
(lp1203
S'27'
p1204
aS'4.0'
p1205
asS'[49.0, 54.0, 58.0]'
p1206
(lp1207
S'28'
p1208
aS'3.0'
p1209
asS'[240.0, 246.0]'
p1210
(lp1211
S'22'
p1212
aS'9.0'
p1213
asS'[235.0, 245.0, 305.0]'
p1214
(lp1215
S'29'
p1216
aS'2.0'
p1217
asS'[71.0, 75.0, 154.0]'
p1218
(lp1219
S'25'
p1220
aS'6.0'
p1221
asS'[189.0, 259.0]'
p1222
(lp1223
S'16'
p1224
aS'15.0'
p1225
asS'[152.0, 245.0]'
p1226
(lp1227
S'27'
p1228
aS'4.0'
p1229
asS'[143.0, 160.0]'
p1230
(lp1231
S'28'
p1232
aS'3.0'
p1233
asS'[89.0, 102.0, 121.0]'
p1234
(lp1235
S'24'
p1236
aS'7.0'
p1237
asS'[7.0, 102.0]'
p1238
(lp1239
S'29'
p1240
aS'2.0'
p1241
asS'[5.0, 40.0]'
p1242
(lp1243
S'27'
p1244
aS'4.0'
p1245
asS'[199.0, 271.0, 305.0]'
p1246
(lp1247
S'29'
p1248
aS'2.0'
p1249
asS'[120.0, 216.0]'
p1250
(lp1251
S'29'
p1252
aS'2.0'
p1253
asS'[71.0, 73.0, 74.0, 225.0]'
p1254
(lp1255
S'29'
p1256
aS'2.0'
p1257
asS'[71.0, 72.0, 74.0, 155.0, 216.0]'
p1258
(lp1259
S'29'
p1260
aS'2.0'
p1261
asS'[71.0, 235.0]'
p1262
(lp1263
S'22'
p1264
aS'9.0'
p1265
asS'[48.0, 74.0, 75.0, 216.0]'
p1266
(lp1267
S'29'
p1268
aS'2.0'
p1269
asS'[72.0, 74.0, 155.0]'
p1270
(lp1271
S'29'
p1272
aS'2.0'
p1273
asS'[71.0, 77.0, 216.0, 240.0]'
p1274
(lp1275
S'29'
p1276
aS'2.0'
p1277
asS'[75.0, 76.0, 234.0]'
p1278
(lp1279
S'29'
p1280
aS'2.0'
p1281
asS'[96.0, 103.0, 140.0]'
p1282
(lp1283
S'28'
p1284
aS'3.0'
p1285
asS'[79.0, 136.0]'
p1286
(lp1287
S'29'
p1288
aS'2.0'
p1289
asS'[55.0, 109.0, 177.0]'
p1290
(lp1291
S'29'
p1292
aS'2.0'
p1293
asS'[189.0, 250.0, 305.0]'
p1294
(lp1295
S'23'
p1296
aS'8.0'
p1297
asS'[61.0, 73.0, 76.0]'
p1298
(lp1299
S'28'
p1300
aS'3.0'
p1301
asS'[89.0, 91.0]'
p1302
(lp1303
S'28'
p1304
aS'3.0'
p1305
asS'[165.0, 166.0, 168.0, 305.0]'
p1306
(lp1307
S'29'
p1308
aS'2.0'
p1309
asS'[125.0]'
p1310
(lp1311
S'23'
p1312
aS'8.0'
p1313
asS'[3.0, 17.0, 78.0]'
p1314
(lp1315
S'29'
p1316
aS'2.0'
p1317
asS'[71.0, 237.0]'
p1318
(lp1319
S'22'
p1320
aS'9.0'
p1321
asS'[45.0, 55.0, 89.0]'
p1322
(lp1323
S'29'
p1324
aS'2.0'
p1325
asS'[161.0, 305.0]'
p1326
(lp1327
S'28'
p1328
aS'3.0'
p1329
asS'[102.0, 305.0]'
p1330
(lp1331
S'22'
p1332
aS'9.0'
p1333
asS'[43.0, 82.0]'
p1334
(lp1335
S'29'
p1336
aS'2.0'
p1337
asS'[7.0, 100.0]'
p1338
(lp1339
S'28'
p1340
aS'3.0'
p1341
asS'[95.0, 116.0]'
p1342
(lp1343
S'28'
p1344
aS'3.0'
p1345
asS'[46.0, 56.0, 138.0]'
p1346
(lp1347
S'29'
p1348
aS'2.0'
p1349
asS'[51.0, 56.0, 96.0]'
p1350
(lp1351
S'27'
p1352
aS'4.0'
p1353
asS'[71.0, 230.0]'
p1354
(lp1355
S'29'
p1356
aS'2.0'
p1357
asS'[56.0, 136.0, 198.0]'
p1358
(lp1359
S'29'
p1360
aS'2.0'
p1361
asS'[46.0, 84.0, 86.0]'
p1362
(lp1363
S'29'
p1364
aS'2.0'
p1365
asS'[169.0, 251.0, 305.0]'
p1366
(lp1367
S'28'
p1368
aS'3.0'
p1369
asS'[78.0, 159.0]'
p1370
(lp1371
S'29'
p1372
aS'2.0'
p1373
asS'[249.0]'
p1374
(lp1375
S'21'
p1376
aS'10.0'
p1377
asS'[112.0, 148.0, 178.0]'
p1378
(lp1379
S'29'
p1380
aS'2.0'
p1381
asS'[73.0, 74.0, 230.0]'
p1382
(lp1383
S'29'
p1384
aS'2.0'
p1385
asS'[109.0, 177.0]'
p1386
(lp1387
S'29'
p1388
aS'2.0'
p1389
asS'[55.0, 78.0]'
p1390
(lp1391
S'27'
p1392
aS'4.0'
p1393
asS'[246.0, 254.0]'
p1394
(lp1395
S'23'
p1396
aS'8.0'
p1397
asS'[71.0, 75.0, 155.0]'
p1398
(lp1399
S'21'
p1400
aS'10.0'
p1401
asS'[144.0, 155.0]'
p1402
(lp1403
S'29'
p1404
aS'2.0'
p1405
asS'[235.0, 276.0, 305.0]'
p1406
(lp1407
S'10'
p1408
aS'23.0'
p1409
asS'[71.0, 72.0, 195.0, 217.0]'
p1410
(lp1411
S'29'
p1412
aS'2.0'
p1413
asS'[72.0, 173.0, 216.0]'
p1414
(lp1415
S'29'
p1416
aS'2.0'
p1417
asS'[179.0, 306.0]'
p1418
(lp1419
S'27'
p1420
aS'4.0'
p1421
asS'[52.0, 199.0]'
p1422
(lp1423
S'26'
p1424
aS'5.0'
p1425
asS'[72.0, 193.0]'
p1426
(lp1427
S'29'
p1428
aS'2.0'
p1429
asS'[244.0, 282.0, 305.0]'
p1430
(lp1431
S'22'
p1432
aS'9.0'
p1433
asS'[46.0, 79.0, 138.0]'
p1434
(lp1435
S'29'
p1436
aS'2.0'
p1437
asS'[72.0, 195.0]'
p1438
(lp1439
S'29'
p1440
aS'2.0'
p1441
asS'[77.0, 251.0]'
p1442
(lp1443
S'29'
p1444
aS'2.0'
p1445
asS'[147.0, 148.0, 178.0]'
p1446
(lp1447
S'29'
p1448
aS'2.0'
p1449
asS'[3.0, 31.0]'
p1450
(lp1451
S'29'
p1452
aS'2.0'
p1453
asS'[153.0, 252.0]'
p1454
(lp1455
S'13'
p1456
aS'18.0'
p1457
asS'[38.0, 101.0]'
p1458
(lp1459
S'28'
p1460
aS'3.0'
p1461
asS'[71.0, 72.0, 74.0, 230.0]'
p1462
(lp1463
S'29'
p1464
aS'2.0'
p1465
asS'[73.0, 193.0, 216.0]'
p1466
(lp1467
S'28'
p1468
aS'3.0'
p1469
asS'[232.0, 280.0]'
p1470
(lp1471
S'29'
p1472
aS'2.0'
p1473
asS'[71.0, 72.0, 238.0]'
p1474
(lp1475
S'29'
p1476
aS'2.0'
p1477
asS'[248.0, 266.0, 305.0]'
p1478
(lp1479
S'16'
p1480
aS'15.0'
p1481
asS'[218.0, 219.0, 305.0]'
p1482
(lp1483
S'26'
p1484
aS'5.0'
p1485
asS'[205.0, 206.0, 220.0]'
p1486
(lp1487
S'29'
p1488
aS'2.0'
p1489
asS'[48.0, 74.0, 216.0]'
p1490
(lp1491
S'29'
p1492
aS'2.0'
p1493
asS'[89.0, 91.0, 113.0]'
p1494
(lp1495
S'28'
p1496
aS'3.0'
p1497
asS'[10.0, 122.0, 305.0]'
p1498
(lp1499
S'21'
p1500
aS'10.0'
p1501
asS'[240.0, 279.0, 305.0]'
p1502
(lp1503
S'24'
p1504
aS'7.0'
p1505
asS'[245.0, 305.0]'
p1506
(lp1507
g538
aS'29.0'
p1508
asS'[227.0, 305.0]'
p1509
(lp1510
S'16'
p1511
aS'15.0'
p1512
asS'[168.0]'
p1513
(lp1514
S'23'
p1515
aS'8.0'
p1516
asS'[71.0, 192.0, 217.0]'
p1517
(lp1518
S'29'
p1519
aS'2.0'
p1520
asS'[145.0]'
p1521
(lp1522
S'26'
p1523
aS'5.0'
p1524
asS'[107.0, 140.0]'
p1525
(lp1526
S'27'
p1527
aS'4.0'
p1528
asS'[72.0, 226.0]'
p1529
(lp1530
S'28'
p1531
aS'3.0'
p1532
asS'[248.0, 249.0, 305.0]'
p1533
(lp1534
S'23'
p1535
aS'8.0'
p1536
asS'[76.0, 204.0]'
p1537
(lp1538
S'28'
p1539
aS'3.0'
p1540
asS'[198.0]'
p1541
(lp1542
S'1'
p1543
aS'61.0'
p1544
asS'[15.0, 26.0]'
p1545
(lp1546
S'29'
p1547
aS'2.0'
p1548
asS'[46.0, 119.0]'
p1549
(lp1550
S'28'
p1551
aS'3.0'
p1552
asS'[229.0, 278.0]'
p1553
(lp1554
S'15'
p1555
aS'16.0'
p1556
asS'[76.0, 215.0, 218.0, 219.0]'
p1557
(lp1558
S'28'
p1559
aS'3.0'
p1560
asS'[40.0, 94.0]'
p1561
(lp1562
S'28'
p1563
aS'3.0'
p1564
asS'[236.0, 277.0, 305.0]'
p1565
(lp1566
S'10'
p1567
aS'23.0'
p1568
asS'[51.0, 67.0, 109.0]'
p1569
(lp1570
S'28'
p1571
aS'3.0'
p1572
asS'[170.0]'
p1573
(lp1574
S'26'
p1575
aS'5.0'
p1576
asS'[195.0, 207.0, 216.0]'
p1577
(lp1578
S'29'
p1579
aS'2.0'
p1580
asS'[247.0, 270.0]'
p1581
(lp1582
S'21'
p1583
aS'10.0'
p1584
asS'[186.0]'
p1585
(lp1586
S'15'
p1587
aS'16.0'
p1588
asS'[77.0, 150.0]'
p1589
(lp1590
S'19'
p1591
aS'12.0'
p1592
asS'[82.0, 156.0]'
p1593
(lp1594
S'29'
p1595
aS'2.0'
p1596
asS'[218.0]'
p1597
(lp1598
S'24'
p1599
aS'7.0'
p1600
asS'[241.0, 247.0]'
p1601
(lp1602
S'22'
p1603
aS'9.0'
p1604
asS'[14.0, 26.0]'
p1605
(lp1606
S'29'
p1607
aS'2.0'
p1608
asS'[71.0, 72.0, 188.0, 195.0]'
p1609
(lp1610
S'29'
p1611
aS'2.0'
p1612
asS'[4.0, 93.0]'
p1613
(lp1614
S'29'
p1615
aS'2.0'
p1616
asS'[72.0, 82.0, 217.0, 218.0]'
p1617
(lp1618
S'29'
p1619
aS'2.0'
p1620
asS'[74.0, 141.0]'
p1621
(lp1622
S'26'
p1623
aS'5.0'
p1624
asS'[82.0]'
p1625
(lp1626
S'24'
p1627
aS'7.0'
p1628
asS'[71.0, 73.0, 149.0]'
p1629
(lp1630
S'29'
p1631
aS'2.0'
p1632
asS'[178.0, 219.0, 305.0]'
p1633
(lp1634
S'29'
p1635
aS'2.0'
p1636
asS'[84.0, 86.0]'
p1637
(lp1638
S'29'
p1639
aS'2.0'
p1640
asS'[77.0, 252.0]'
p1641
(lp1642
S'26'
p1643
aS'5.0'
p1644
asS'[74.0, 230.0]'
p1645
(lp1646
S'29'
p1647
aS'2.0'
p1648
asS'[103.0, 136.0, 201.0]'
p1649
(lp1650
S'29'
p1651
aS'2.0'
p1652
asS'[152.0, 278.0, 305.0]'
p1653
(lp1654
S'24'
p1655
aS'7.0'
p1656
asS'[153.0, 270.0]'
p1657
(lp1658
S'29'
p1659
aS'2.0'
p1660
asS'[72.0, 76.0, 215.0]'
p1661
(lp1662
S'24'
p1663
aS'7.0'
p1664
asS'[236.0, 278.0]'
p1665
(lp1666
S'25'
p1667
aS'6.0'
p1668
asS'[163.0, 177.0]'
p1669
(lp1670
S'28'
p1671
aS'3.0'
p1672
asS'[82.0, 217.0, 219.0]'
p1673
(lp1674
S'29'
p1675
aS'2.0'
p1676
asS'[240.0, 246.0, 305.0]'
p1677
(lp1678
S'22'
p1679
aS'9.0'
p1680
asS'[159.0, 199.0]'
p1681
(lp1682
S'28'
p1683
aS'3.0'
p1684
asS'[71.0, 188.0, 195.0]'
p1685
(lp1686
S'29'
p1687
aS'2.0'
p1688
asS'[68.0, 110.0]'
p1689
(lp1690
S'20'
p1691
aS'11.0'
p1692
asS'[171.0, 217.0]'
p1693
(lp1694
S'29'
p1695
aS'2.0'
p1696
asS'[47.0, 72.0, 76.0, 82.0]'
p1697
(lp1698
S'29'
p1699
aS'2.0'
p1700
asS'[72.0, 76.0, 82.0]'
p1701
(lp1702
S'29'
p1703
aS'2.0'
p1704
asS'[75.0, 178.0, 212.0]'
p1705
(lp1706
S'29'
p1707
aS'2.0'
p1708
asS'[178.0, 237.0]'
p1709
(lp1710
S'29'
p1711
aS'2.0'
p1712
asS'[71.0, 238.0]'
p1713
(lp1714
S'29'
p1715
aS'2.0'
p1716
asS'[117.0, 219.0]'
p1717
(lp1718
S'27'
p1719
aS'4.0'
p1720
asS'[61.0, 89.0]'
p1721
(lp1722
S'27'
p1723
aS'4.0'
p1724
asS'[90.0, 193.0]'
p1725
(lp1726
S'29'
p1727
aS'2.0'
p1728
asS'[72.0, 73.0, 76.0, 155.0]'
p1729
(lp1730
S'29'
p1731
aS'2.0'
p1732
asS'[83.0]'
p1733
(lp1734
S'21'
p1735
aS'10.0'
p1736
asS'[85.0, 177.0]'
p1737
(lp1738
S'29'
p1739
aS'2.0'
p1740
asS'[163.0, 178.0]'
p1741
(lp1742
S'28'
p1743
aS'3.0'
p1744
asS'[43.0, 77.0]'
p1745
(lp1746
S'28'
p1747
aS'3.0'
p1748
asS'[4.0, 10.0, 122.0]'
p1749
(lp1750
S'29'
p1751
aS'2.0'
p1752
asS'[144.0, 154.0]'
p1753
(lp1754
S'29'
p1755
aS'2.0'
p1756
asS'[250.0, 275.0]'
p1757
(lp1758
S'29'
p1759
aS'2.0'
p1760
asS'[146.0]'
p1761
(lp1762
S'26'
p1763
aS'5.0'
p1764
asS'[127.0]'
p1765
(lp1766
S'22'
p1767
aS'9.0'
p1768
asS'[6.0, 41.0]'
p1769
(lp1770
S'26'
p1771
aS'5.0'
p1772
asS'[247.0]'
p1773
(lp1774
g538
aS'29.0'
p1775
asS'[149.0, 205.0, 206.0]'
p1776
(lp1777
S'28'
p1778
aS'3.0'
p1779
asS'[219.0, 269.0, 305.0]'
p1780
(lp1781
S'29'
p1782
aS'2.0'
p1783
asS'[71.0, 208.0]'
p1784
(lp1785
S'24'
p1786
aS'7.0'
p1787
asS'[58.0, 88.0, 114.0]'
p1788
(lp1789
S'29'
p1790
aS'2.0'
p1791
asS'[151.0, 169.0, 305.0]'
p1792
(lp1793
S'23'
p1794
aS'8.0'
p1795
asS'[198.0, 209.0, 216.0]'
p1796
(lp1797
S'29'
p1798
aS'2.0'
p1799
asS'[89.0, 113.0]'
p1800
(lp1801
S'26'
p1802
aS'5.0'
p1803
asS'[262.0, 305.0]'
p1804
(lp1805
S'13'
p1806
aS'18.0'
p1807
asS'[81.0, 174.0]'
p1808
(lp1809
S'29'
p1810
aS'2.0'
p1811
asS'[7.0, 102.0, 305.0]'
p1812
(lp1813
S'29'
p1814
aS'2.0'
p1815
asS'[68.0, 112.0]'
p1816
(lp1817
S'29'
p1818
aS'2.0'
p1819
asS'[72.0, 217.0, 218.0]'
p1820
(lp1821
S'29'
p1822
aS'2.0'
p1823
asS'[72.0, 73.0, 154.0]'
p1824
(lp1825
S'27'
p1826
aS'4.0'
p1827
asS'[225.0, 305.0]'
p1828
(lp1829
S'16'
p1830
aS'15.0'
p1831
asS'[137.0, 213.0]'
p1832
(lp1833
S'25'
p1834
aS'6.0'
p1835
asS'[242.0, 280.0]'
p1836
(lp1837
S'11'
p1838
aS'22.0'
p1839
asS'[81.0]'
p1840
(lp1841
S'26'
p1842
aS'5.0'
p1843
asS'[64.0]'
p1844
(lp1845
S'28'
p1846
aS'3.0'
p1847
asS'[64.0, 110.0]'
p1848
(lp1849
S'28'
p1850
aS'3.0'
p1851
asS'[72.0, 242.0]'
p1852
(lp1853
S'29'
p1854
aS'2.0'
p1855
asS'[71.0, 72.0, 228.0]'
p1856
(lp1857
S'29'
p1858
aS'2.0'
p1859
asS'[251.0]'
p1860
(lp1861
S'21'
p1862
aS'10.0'
p1863
asS'[238.0, 305.0]'
p1864
(lp1865
g538
aS'29.0'
p1866
asS'[12.0, 30.0]'
p1867
(lp1868
S'28'
p1869
aS'3.0'
p1870
asS'[73.0, 74.0, 155.0, 216.0]'
p1871
(lp1872
S'29'
p1873
aS'2.0'
p1874
asS'[52.0, 74.0, 95.0, 141.0]'
p1875
(lp1876
S'29'
p1877
aS'2.0'
p1878
asS'[90.0, 114.0]'
p1879
(lp1880
S'27'
p1881
aS'4.0'
p1882
asS'[73.0, 154.0]'
p1883
(lp1884
S'27'
p1885
aS'4.0'
p1886
asS'[75.0, 216.0]'
p1887
(lp1888
S'28'
p1889
aS'3.0'
p1890
asS'[72.0, 182.0, 216.0]'
p1891
(lp1892
S'22'
p1893
aS'9.0'
p1894
asS'[71.0, 74.0, 230.0]'
p1895
(lp1896
S'29'
p1897
aS'2.0'
p1898
asS'[71.0, 72.0, 195.0, 203.0]'
p1899
(lp1900
S'29'
p1901
aS'2.0'
p1902
asS'[71.0, 203.0]'
p1903
(lp1904
S'26'
p1905
aS'5.0'
p1906
asS'[28.0, 137.0, 305.0]'
p1907
(lp1908
S'27'
p1909
aS'4.0'
p1910
asS'[101.0, 122.0, 305.0]'
p1911
(lp1912
S'24'
p1913
aS'7.0'
p1914
asS'[148.0, 178.0, 305.0]'
p1915
(lp1916
S'29'
p1917
aS'2.0'
p1918
asS'[78.0, 218.0]'
p1919
(lp1920
S'28'
p1921
aS'3.0'
p1922
asS'[181.0, 217.0]'
p1923
(lp1924
S'6'
p1925
aS'28.0'
p1926
asS'[179.0, 183.0]'
p1927
(lp1928
S'21'
p1929
aS'10.0'
p1930
asS'[59.0, 111.0]'
p1931
(lp1932
S'29'
p1933
aS'2.0'
p1934
asS'[72.0, 76.0, 82.0, 218.0, 219.0]'
p1935
(lp1936
S'29'
p1937
aS'2.0'
p1938
asS'[72.0, 73.0, 74.0, 228.0]'
p1939
(lp1940
S'29'
p1941
aS'2.0'
p1942
asS'[242.0, 279.0]'
p1943
(lp1944
S'22'
p1945
aS'9.0'
p1946
asS'[52.0, 57.0, 88.0]'
p1947
(lp1948
S'29'
p1949
aS'2.0'
p1950
asS'[152.0, 277.0]'
p1951
(lp1952
S'11'
p1953
aS'22.0'
p1954
asS'[71.0, 72.0, 74.0, 227.0]'
p1955
(lp1956
S'29'
p1957
aS'2.0'
p1958
asS'[52.0, 55.0, 95.0]'
p1959
(lp1960
S'28'
p1961
aS'3.0'
p1962
asS'[71.0, 77.0, 155.0]'
p1963
(lp1964
S'28'
p1965
aS'3.0'
p1966
asS'[147.0, 148.0, 305.0]'
p1967
(lp1968
S'29'
p1969
aS'2.0'
p1970
asS'[75.0, 76.0, 237.0]'
p1971
(lp1972
S'29'
p1973
aS'2.0'
p1974
asS'[177.0, 272.0]'
p1975
(lp1976
S'21'
p1977
aS'10.0'
p1978
asS'[20.0, 24.0]'
p1979
(lp1980
S'29'
p1981
aS'2.0'
p1982
asS'[73.0, 74.0, 145.0]'
p1983
(lp1984
S'29'
p1985
aS'2.0'
p1986
asS'[25.0]'
p1987
(lp1988
S'21'
p1989
aS'10.0'
p1990
asS'[71.0, 74.0, 192.0]'
p1991
(lp1992
S'29'
p1993
aS'2.0'
p1994
asS'[246.0, 254.0, 305.0]'
p1995
(lp1996
S'23'
p1997
aS'8.0'
p1998
asS'[272.0, 305.0]'
p1999
(lp2000
S'21'
p2001
aS'10.0'
p2002
asS'[33.0]'
p2003
(lp2004
S'27'
p2005
aS'4.0'
p2006
asS'[48.0, 72.0, 76.0, 82.0, 216.0]'
p2007
(lp2008
S'29'
p2009
aS'2.0'
p2010
asS'[210.0, 217.0]'
p2011
(lp2012
S'23'
p2013
aS'8.0'
p2014
asS'[71.0, 149.0, 250.0]'
p2015
(lp2016
S'29'
p2017
aS'2.0'
p2018
asS'[71.0, 72.0, 145.0]'
p2019
(lp2020
S'28'
p2021
aS'3.0'
p2022
asS'[73.0, 76.0, 216.0]'
p2023
(lp2024
S'28'
p2025
aS'3.0'
p2026
asS'[52.0, 62.0]'
p2027
(lp2028
S'28'
p2029
aS'3.0'
p2030
asS'[47.0, 51.0]'
p2031
(lp2032
S'25'
p2033
aS'6.0'
p2034
asS'[219.0, 269.0, 277.0]'
p2035
(lp2036
S'29'
p2037
aS'2.0'
p2038
asS'[27.0, 32.0, 305.0]'
p2039
(lp2040
S'29'
p2041
aS'2.0'
p2042
asS'[5.0, 23.0, 29.0]'
p2043
(lp2044
S'29'
p2045
aS'2.0'
p2046
asS'[257.0]'
p2047
(lp2048
S'21'
p2049
aS'10.0'
p2050
asS'[248.0, 259.0]'
p2051
(lp2052
S'25'
p2053
aS'6.0'
p2054
asS'[43.0, 73.0]'
p2055
(lp2056
S'29'
p2057
aS'2.0'
p2058
asS'[72.0, 73.0, 155.0, 216.0]'
p2059
(lp2060
S'29'
p2061
aS'2.0'
p2062
asS'[207.0]'
p2063
(lp2064
S'18'
p2065
aS'13.0'
p2066
asS'[89.0]'
p2067
(lp2068
S'19'
p2069
aS'12.0'
p2070
asS'[71.0, 72.0, 249.0]'
p2071
(lp2072
S'28'
p2073
aS'3.0'
p2074
asS'[21.0, 118.0]'
p2075
(lp2076
S'28'
p2077
aS'3.0'
p2078
asS'[12.0, 24.0]'
p2079
(lp2080
S'19'
p2081
aS'12.0'
p2082
asS'[73.0, 74.0, 172.0, 216.0]'
p2083
(lp2084
S'29'
p2085
aS'2.0'
p2086
asS'[195.0, 207.0]'
p2087
(lp2088
S'29'
p2089
aS'2.0'
p2090
asS'[148.0]'
p2091
(lp2092
S'23'
p2093
aS'8.0'
p2094
asS'[230.0, 278.0, 305.0]'
p2095
(lp2096
S'29'
p2097
aS'2.0'
p2098
asS'[1.0, 53.0]'
p2099
(lp2100
S'28'
p2101
aS'3.0'
p2102
asS'[40.0, 78.0]'
p2103
(lp2104
S'26'
p2105
aS'5.0'
p2106
asS'[72.0, 76.0, 255.0]'
p2107
(lp2108
S'29'
p2109
aS'2.0'
p2110
asS'[27.0]'
p2111
(lp2112
S'17'
p2113
aS'14.0'
p2114
asS'[137.0, 160.0]'
p2115
(lp2116
S'29'
p2117
aS'2.0'
p2118
asS'[237.0, 279.0, 305.0]'
p2119
(lp2120
S'10'
p2121
aS'23.0'
p2122
asS'[8.0, 121.0]'
p2123
(lp2124
S'28'
p2125
aS'3.0'
p2126
asS'[20.0, 41.0]'
p2127
(lp2128
S'26'
p2129
aS'5.0'
p2130
asS'[17.0, 99.0]'
p2131
(lp2132
S'29'
p2133
aS'2.0'
p2134
asS'[72.0, 74.0, 193.0, 216.0]'
p2135
(lp2136
S'29'
p2137
aS'2.0'
p2138
asS'[52.0, 60.0]'
p2139
(lp2140
S'29'
p2141
aS'2.0'
p2142
asS'[56.0, 119.0]'
p2143
(lp2144
S'26'
p2145
aS'5.0'
p2146
asS'[100.0, 305.0]'
p2147
(lp2148
S'27'
p2149
aS'4.0'
p2150
asS'[72.0, 76.0, 252.0]'
p2151
(lp2152
S'28'
p2153
aS'3.0'
p2154
asS'[170.0, 216.0]'
p2155
(lp2156
S'27'
p2157
aS'4.0'
p2158
asS'[169.0, 251.0]'
p2159
(lp2160
S'28'
p2161
aS'3.0'
p2162
asS'[71.0, 74.0, 77.0, 217.0]'
p2163
(lp2164
S'28'
p2165
aS'3.0'
p2166
asS'[37.0, 91.0, 108.0]'
p2167
(lp2168
S'29'
p2169
aS'2.0'
p2170
asS'[183.0, 222.0]'
p2171
(lp2172
S'29'
p2173
aS'2.0'
p2174
asS'[13.0, 143.0]'
p2175
(lp2176
S'29'
p2177
aS'2.0'
p2178
asS'[71.0, 73.0, 74.0, 217.0]'
p2179
(lp2180
S'29'
p2181
aS'2.0'
p2182
asS'[74.0, 306.0]'
p2183
(lp2184
S'25'
p2185
aS'6.0'
p2186
asS'[72.0, 208.0, 217.0]'
p2187
(lp2188
S'28'
p2189
aS'3.0'
p2190
asS'[237.0, 279.0]'
p2191
(lp2192
S'10'
p2193
aS'23.0'
p2194
asS'[82.0, 222.0]'
p2195
(lp2196
S'29'
p2197
aS'2.0'
p2198
asS'[270.0]'
p2199
(lp2200
S'21'
p2201
aS'10.0'
p2202
asS'[255.0]'
p2203
(lp2204
S'21'
p2205
aS'10.0'
p2206
asS'[72.0, 73.0, 74.0, 192.0, 217.0]'
p2207
(lp2208
S'29'
p2209
aS'2.0'
p2210
asS'[71.0, 74.0, 155.0, 216.0]'
p2211
(lp2212
S'29'
p2213
aS'2.0'
p2214
asS'[48.0, 62.0]'
p2215
(lp2216
S'28'
p2217
aS'3.0'
p2218
asS'[97.0, 128.0]'
p2219
(lp2220
S'28'
p2221
aS'3.0'
p2222
asS'[71.0, 73.0, 192.0]'
p2223
(lp2224
S'29'
p2225
aS'2.0'
p2226
asS'[72.0, 74.0, 155.0, 216.0]'
p2227
(lp2228
S'29'
p2229
aS'2.0'
p2230
asS'[147.0, 205.0]'
p2231
(lp2232
S'28'
p2233
aS'3.0'
p2234
asS'[71.0, 72.0, 74.0, 217.0]'
p2235
(lp2236
S'29'
p2237
aS'2.0'
p2238
asS'[89.0, 118.0]'
p2239
(lp2240
S'19'
p2241
aS'12.0'
p2242
asS'[273.0]'
p2243
(lp2244
S'20'
p2245
aS'11.0'
p2246
asS'[71.0, 75.0, 212.0]'
p2247
(lp2248
S'27'
p2249
aS'4.0'
p2250
asS'[2.0, 54.0]'
p2251
(lp2252
S'28'
p2253
aS'3.0'
p2254
asS'[78.0, 219.0]'
p2255
(lp2256
S'28'
p2257
aS'3.0'
p2258
asS'[55.0, 198.0]'
p2259
(lp2260
S'28'
p2261
aS'3.0'
p2262
asS'[71.0, 75.0, 155.0, 216.0]'
p2263
(lp2264
S'29'
p2265
aS'2.0'
p2266
asS'[71.0, 174.0]'
p2267
(lp2268
S'26'
p2269
aS'5.0'
p2270
asS'[72.0, 240.0]'
p2271
(lp2272
S'29'
p2273
aS'2.0'
p2274
asS'[184.0]'
p2275
(lp2276
S'28'
p2277
aS'3.0'
p2278
asS'[140.0]'
p2279
(lp2280
S'25'
p2281
aS'6.0'
p2282
asS'[2.0, 91.0]'
p2283
(lp2284
S'27'
p2285
aS'4.0'
p2286
asS'[56.0, 90.0, 114.0]'
p2287
(lp2288
S'27'
p2289
aS'4.0'
p2290
asS'[233.0, 281.0, 305.0]'
p2291
(lp2292
S'29'
p2293
aS'2.0'
p2294
asS'[144.0, 161.0]'
p2295
(lp2296
S'29'
p2297
aS'2.0'
p2298
asS'[71.0, 77.0, 217.0]'
p2299
(lp2300
S'28'
p2301
aS'3.0'
p2302
asS'[72.0, 216.0, 226.0]'
p2303
(lp2304
S'29'
p2305
aS'2.0'
p2306
asS'[117.0, 218.0, 219.0]'
p2307
(lp2308
S'27'
p2309
aS'4.0'
p2310
asS'[71.0, 212.0]'
p2311
(lp2312
S'26'
p2313
aS'5.0'
p2314
asS'[74.0, 145.0]'
p2315
(lp2316
S'26'
p2317
aS'5.0'
p2318
asS'[72.0, 227.0]'
p2319
(lp2320
S'29'
p2321
aS'2.0'
p2322
asS'[239.0, 274.0]'
p2323
(lp2324
S'10'
p2325
aS'23.0'
p2326
asS'[51.0, 185.0]'
p2327
(lp2328
S'29'
p2329
aS'2.0'
p2330
asS'[75.0, 236.0]'
p2331
(lp2332
S'27'
p2333
aS'4.0'
p2334
asS'[73.0, 76.0, 192.0]'
p2335
(lp2336
S'29'
p2337
aS'2.0'
p2338
asS'[177.0, 220.0]'
p2339
(lp2340
S'28'
p2341
aS'3.0'
p2342
asS'[78.0, 81.0]'
p2343
(lp2344
S'27'
p2345
aS'4.0'
p2346
asS'[75.0, 163.0, 177.0]'
p2347
(lp2348
S'28'
p2349
aS'3.0'
p2350
asS'[73.0, 217.0]'
p2351
(lp2352
S'22'
p2353
aS'9.0'
p2354
asS'[71.0, 77.0, 198.0, 217.0]'
p2355
(lp2356
S'28'
p2357
aS'3.0'
p2358
asS'[117.0, 120.0]'
p2359
(lp2360
S'29'
p2361
aS'2.0'
p2362
asS'[152.0, 217.0]'
p2363
(lp2364
S'27'
p2365
aS'4.0'
p2366
asS'[74.0, 75.0, 81.0, 217.0]'
p2367
(lp2368
S'28'
p2369
aS'3.0'
p2370
asS'[189.0, 243.0]'
p2371
(lp2372
S'22'
p2373
aS'9.0'
p2374
asS'[115.0, 159.0]'
p2375
(lp2376
S'27'
p2377
aS'4.0'
p2378
asS'[78.0, 91.0]'
p2379
(lp2380
S'26'
p2381
aS'5.0'
p2382
asS'[199.0, 271.0]'
p2383
(lp2384
S'29'
p2385
aS'2.0'
p2386
asS'[74.0, 193.0]'
p2387
(lp2388
S'24'
p2389
aS'7.0'
p2390
asS'[72.0, 73.0, 74.0, 155.0, 216.0]'
p2391
(lp2392
S'29'
p2393
aS'2.0'
p2394
asS'[18.0, 41.0]'
p2395
(lp2396
S'25'
p2397
aS'6.0'
p2398
asS'[72.0, 74.0, 217.0, 218.0, 219.0]'
p2399
(lp2400
S'29'
p2401
aS'2.0'
p2402
asS'[71.0, 72.0, 240.0]'
p2403
(lp2404
S'29'
p2405
aS'2.0'
p2406
asS'[82.0, 218.0]'
p2407
(lp2408
S'24'
p2409
aS'7.0'
p2410
asS'[71.0, 208.0, 216.0]'
p2411
(lp2412
S'25'
p2413
aS'6.0'
p2414
asS'[77.0, 217.0, 226.0]'
p2415
(lp2416
S'29'
p2417
aS'2.0'
p2418
asS'[210.0]'
p2419
(lp2420
S'23'
p2421
aS'8.0'
p2422
asS'[71.0, 72.0, 242.0]'
p2423
(lp2424
S'29'
p2425
aS'2.0'
p2426
asS'[183.0, 216.0]'
p2427
(lp2428
S'29'
p2429
aS'2.0'
p2430
asS'[270.0, 278.0, 305.0]'
p2431
(lp2432
S'27'
p2433
aS'4.0'
p2434
asS'[47.0, 51.0, 61.0, 109.0]'
p2435
(lp2436
S'29'
p2437
aS'2.0'
p2438
asS'[198.0, 216.0, 240.0]'
p2439
(lp2440
S'28'
p2441
aS'3.0'
p2442
asS'[246.0, 264.0]'
p2443
(lp2444
S'25'
p2445
aS'6.0'
p2446
asS'[205.0, 206.0, 208.0]'
p2447
(lp2448
S'27'
p2449
aS'4.0'
p2450
asS'[71.0, 72.0, 74.0, 145.0]'
p2451
(lp2452
S'29'
p2453
aS'2.0'
p2454
asS'[71.0, 72.0, 74.0]'
p2455
(lp2456
S'29'
p2457
aS'2.0'
p2458
asS'[71.0, 207.0]'
p2459
(lp2460
S'22'
p2461
aS'9.0'
p2462
asS'[275.0]'
p2463
(lp2464
S'10'
p2465
aS'23.0'
p2466
asS'[248.0, 267.0, 305.0]'
p2467
(lp2468
S'16'
p2469
aS'15.0'
p2470
asS'[71.0, 73.0, 155.0, 216.0]'
p2471
(lp2472
S'29'
p2473
aS'2.0'
p2474
asS'[72.0, 78.0, 234.0]'
p2475
(lp2476
S'27'
p2477
aS'4.0'
p2478
asS'[96.0, 157.0]'
p2479
(lp2480
S'27'
p2481
aS'4.0'
p2482
asS'[152.0, 216.0]'
p2483
(lp2484
S'27'
p2485
aS'4.0'
p2486
asS'[72.0, 163.0]'
p2487
(lp2488
S'29'
p2489
aS'2.0'
p2490
asS'[72.0, 195.0, 217.0]'
p2491
(lp2492
S'29'
p2493
aS'2.0'
p2494
asS'[71.0, 72.0, 73.0, 155.0]'
p2495
(lp2496
S'29'
p2497
aS'2.0'
p2498
asS'[71.0, 179.0]'
p2499
(lp2500
S'29'
p2501
aS'2.0'
p2502
asS'[53.0, 57.0]'
p2503
(lp2504
S'29'
p2505
aS'2.0'
p2506
asS'[194.0, 218.0, 219.0]'
p2507
(lp2508
S'29'
p2509
aS'2.0'
p2510
asS'[198.0, 206.0]'
p2511
(lp2512
S'29'
p2513
aS'2.0'
p2514
asS'[56.0, 84.0, 86.0]'
p2515
(lp2516
S'29'
p2517
aS'2.0'
p2518
asS'[116.0, 180.0, 306.0]'
p2519
(lp2520
S'27'
p2521
aS'4.0'
p2522
asS'[3.0]'
p2523
(lp2524
S'25'
p2525
aS'6.0'
p2526
asS'[71.0, 75.0, 217.0]'
p2527
(lp2528
S'25'
p2529
aS'6.0'
p2530
asS'[149.0, 205.0]'
p2531
(lp2532
S'26'
p2533
aS'5.0'
p2534
asS'[270.0, 277.0]'
p2535
(lp2536
S'29'
p2537
aS'2.0'
p2538
asS'[75.0, 234.0]'
p2539
(lp2540
S'29'
p2541
aS'2.0'
p2542
asS'[189.0, 195.0]'
p2543
(lp2544
S'29'
p2545
aS'2.0'
p2546
asS'[71.0, 74.0, 75.0, 81.0]'
p2547
(lp2548
S'29'
p2549
aS'2.0'
p2550
asS'[96.0, 305.0]'
p2551
(lp2552
S'27'
p2553
aS'4.0'
p2554
asS'[71.0, 72.0, 186.0, 195.0]'
p2555
(lp2556
S'29'
p2557
aS'2.0'
p2558
asS'[208.0]'
p2559
(lp2560
S'24'
p2561
aS'7.0'
p2562
asS'[17.0, 140.0]'
p2563
(lp2564
S'27'
p2565
aS'4.0'
p2566
asS'[78.0, 150.0]'
p2567
(lp2568
S'19'
p2569
aS'12.0'
p2570
asS'[56.0, 77.0]'
p2571
(lp2572
S'27'
p2573
aS'4.0'
p2574
asS'[166.0, 168.0, 305.0]'
p2575
(lp2576
S'29'
p2577
aS'2.0'
p2578
asS'[108.0, 121.0]'
p2579
(lp2580
S'29'
p2581
aS'2.0'
p2582
asS'[177.0, 272.0, 305.0]'
p2583
(lp2584
S'21'
p2585
aS'10.0'
p2586
asS'[115.0, 179.0, 183.0]'
p2587
(lp2588
S'21'
p2589
aS'10.0'
p2590
asS'[216.0]'
p2591
(lp2592
g1925
aS'28.0'
p2593
asS'[247.0, 270.0, 305.0]'
p2594
(lp2595
S'23'
p2596
aS'8.0'
p2597
asS'[101.0, 305.0]'
p2598
(lp2599
S'24'
p2600
aS'7.0'
p2601
asS'[246.0, 270.0, 305.0]'
p2602
(lp2603
S'27'
p2604
aS'4.0'
p2605
asS'[162.0]'
p2606
(lp2607
S'23'
p2608
aS'8.0'
p2609
asS'[56.0, 198.0]'
p2610
(lp2611
S'29'
p2612
aS'2.0'
p2613
asS'[111.0, 303.0]'
p2614
(lp2615
S'29'
p2616
aS'2.0'
p2617
asS'[72.0, 255.0]'
p2618
(lp2619
S'27'
p2620
aS'4.0'
p2621
asS'[72.0, 238.0]'
p2622
(lp2623
S'29'
p2624
aS'2.0'
p2625
asS'[126.0, 158.0]'
p2626
(lp2627
S'28'
p2628
aS'3.0'
p2629
asS'[55.0, 83.0, 113.0]'
p2630
(lp2631
S'28'
p2632
aS'3.0'
p2633
asS'[73.0, 193.0, 306.0]'
p2634
(lp2635
S'28'
p2636
aS'3.0'
p2637
asS'[98.0, 127.0]'
p2638
(lp2639
S'29'
p2640
aS'2.0'
p2641
asS'[229.0, 277.0, 305.0]'
p2642
(lp2643
S'29'
p2644
aS'2.0'
p2645
asS'[50.0, 114.0]'
p2646
(lp2647
S'20'
p2648
aS'11.0'
p2649
asS'[78.0, 81.0, 219.0]'
p2650
(lp2651
S'29'
p2652
aS'2.0'
p2653
asS'[109.0, 220.0]'
p2654
(lp2655
S'25'
p2656
aS'6.0'
p2657
asS'[73.0, 95.0]'
p2658
(lp2659
S'29'
p2660
aS'2.0'
p2661
asS'[116.0, 199.0, 306.0]'
p2662
(lp2663
S'26'
p2664
aS'5.0'
p2665
asS'[76.0, 218.0, 219.0]'
p2666
(lp2667
S'26'
p2668
aS'5.0'
p2669
asS'[245.0, 262.0]'
p2670
(lp2671
S'25'
p2672
aS'6.0'
p2673
asS'[77.0, 235.0]'
p2674
(lp2675
S'27'
p2676
aS'4.0'
p2677
asS'[71.0, 228.0]'
p2678
(lp2679
S'29'
p2680
aS'2.0'
p2681
asS'[51.0, 71.0, 73.0]'
p2682
(lp2683
S'29'
p2684
aS'2.0'
p2685
asS'[248.0, 258.0, 305.0]'
p2686
(lp2687
S'23'
p2688
aS'8.0'
p2689
asS'[55.0, 113.0]'
p2690
(lp2691
S'18'
p2692
aS'13.0'
p2693
asS'[37.0, 78.0, 91.0]'
p2694
(lp2695
S'29'
p2696
aS'2.0'
p2697
asS'[160.0]'
p2698
(lp2699
S'26'
p2700
aS'5.0'
p2701
asS'[81.0, 142.0]'
p2702
(lp2703
S'28'
p2704
aS'3.0'
p2705
asS'[75.0, 81.0]'
p2706
(lp2707
S'28'
p2708
aS'3.0'
p2709
asS'[71.0, 75.0, 225.0]'
p2710
(lp2711
S'29'
p2712
aS'2.0'
p2713
asS'[62.0, 72.0, 74.0]'
p2714
(lp2715
S'29'
p2716
aS'2.0'
p2717
asS'[117.0, 189.0]'
p2718
(lp2719
S'29'
p2720
aS'2.0'
p2721
asS'[48.0, 72.0, 76.0, 82.0]'
p2722
(lp2723
S'29'
p2724
aS'2.0'
p2725
asS'[196.0, 305.0]'
p2726
(lp2727
S'23'
p2728
aS'8.0'
p2729
asS'[128.0, 138.0, 214.0]'
p2730
(lp2731
S'28'
p2732
aS'3.0'
p2733
asS'[186.0, 274.0]'
p2734
(lp2735
S'29'
p2736
aS'2.0'
p2737
asS'[47.0, 76.0, 82.0]'
p2738
(lp2739
S'29'
p2740
aS'2.0'
p2741
asS'[48.0, 52.0, 74.0]'
p2742
(lp2743
S'29'
p2744
aS'2.0'
p2745
asS'[98.0, 305.0]'
p2746
(lp2747
S'26'
p2748
aS'5.0'
p2749
asS'[277.0]'
p2750
(lp2751
g347
aS'25.0'
p2752
asS'[71.0, 72.0, 94.0]'
p2753
(lp2754
S'28'
p2755
aS'3.0'
p2756
asS'[187.0, 189.0]'
p2757
(lp2758
S'29'
p2759
aS'2.0'
p2760
asS'[56.0, 114.0]'
p2761
(lp2762
S'25'
p2763
aS'6.0'
p2764
asS'[230.0, 305.0]'
p2765
(lp2766
S'16'
p2767
aS'15.0'
p2768
asS'[90.0, 122.0]'
p2769
(lp2770
S'23'
p2771
aS'8.0'
p2772
asS'[246.0, 262.0]'
p2773
(lp2774
S'16'
p2775
aS'15.0'
p2776
asS'[74.0, 75.0]'
p2777
(lp2778
S'28'
p2779
aS'3.0'
p2780
asS'[275.0, 305.0]'
p2781
(lp2782
S'23'
p2783
aS'8.0'
p2784
asS'[72.0, 82.0, 218.0]'
p2785
(lp2786
S'29'
p2787
aS'2.0'
p2788
asS'[73.0, 74.0, 172.0, 217.0]'
p2789
(lp2790
S'29'
p2791
aS'2.0'
p2792
asS'[101.0, 160.0, 305.0]'
p2793
(lp2794
S'27'
p2795
aS'4.0'
p2796
asS'[172.0]'
p2797
(lp2798
S'25'
p2799
aS'6.0'
p2800
asS'[218.0, 277.0]'
p2801
(lp2802
S'27'
p2803
aS'4.0'
p2804
asS'[167.0, 169.0, 305.0]'
p2805
(lp2806
S'29'
p2807
aS'2.0'
p2808
asS'[54.0, 58.0]'
p2809
(lp2810
S'28'
p2811
aS'3.0'
p2812
asS'[55.0, 135.0, 198.0]'
p2813
(lp2814
S'28'
p2815
aS'3.0'
p2816
asS'[42.0]'
p2817
(lp2818
S'26'
p2819
aS'5.0'
p2820
asS'[256.0, 305.0]'
p2821
(lp2822
S'21'
p2823
aS'10.0'
p2824
asS'[79.0, 148.0]'
p2825
(lp2826
S'26'
p2827
aS'5.0'
p2828
asS'[240.0, 245.0, 305.0]'
p2829
(lp2830
S'27'
p2831
aS'4.0'
p2832
asS'[272.0]'
p2833
(lp2834
S'21'
p2835
aS'10.0'
p2836
asS'[200.0, 271.0]'
p2837
(lp2838
S'29'
p2839
aS'2.0'
p2840
asS'[61.0, 71.0]'
p2841
(lp2842
S'29'
p2843
aS'2.0'
p2844
asS'[156.0, 177.0]'
p2845
(lp2846
S'28'
p2847
aS'3.0'
p2848
asS'[245.0, 262.0, 305.0]'
p2849
(lp2850
S'25'
p2851
aS'6.0'
p2852
asS'[35.0, 40.0, 101.0]'
p2853
(lp2854
S'29'
p2855
aS'2.0'
p2856
asS'[68.0]'
p2857
(lp2858
S'20'
p2859
aS'11.0'
p2860
asS'[153.0, 270.0, 305.0]'
p2861
(lp2862
S'29'
p2863
aS'2.0'
p2864
asS'[73.0, 155.0, 306.0]'
p2865
(lp2866
S'28'
p2867
aS'3.0'
p2868
asS'[73.0, 82.0, 217.0]'
p2869
(lp2870
S'27'
p2871
aS'4.0'
p2872
asS'[13.0, 21.0, 118.0]'
p2873
(lp2874
S'28'
p2875
aS'3.0'
p2876
asS'[69.0, 77.0]'
p2877
(lp2878
S'27'
p2879
aS'4.0'
p2880
asS'[90.0, 92.0]'
p2881
(lp2882
S'29'
p2883
aS'2.0'
p2884
asS'[55.0, 119.0]'
p2885
(lp2886
S'25'
p2887
aS'6.0'
p2888
asS'[305.0]'
p2889
(lp2890
g446
aS'31.0'
p2891
asS'[117.0, 199.0, 305.0]'
p2892
(lp2893
S'29'
p2894
aS'2.0'
p2895
asS'[72.0, 74.0, 145.0]'
p2896
(lp2897
S'29'
p2898
aS'2.0'
p2899
asS'[187.0, 199.0, 305.0]'
p2900
(lp2901
S'29'
p2902
aS'2.0'
p2903
asS'[172.0, 174.0]'
p2904
(lp2905
S'27'
p2906
aS'4.0'
p2907
asS'[72.0, 73.0, 225.0]'
p2908
(lp2909
S'29'
p2910
aS'2.0'
p2911
asS'[76.0, 82.0, 216.0]'
p2912
(lp2913
S'29'
p2914
aS'2.0'
p2915
asS'[77.0, 120.0]'
p2916
(lp2917
S'23'
p2918
aS'8.0'
p2919
asS'[76.0, 215.0, 218.0]'
p2920
(lp2921
S'28'
p2922
aS'3.0'
p2923
asS'[81.0, 174.0, 217.0, 219.0]'
p2924
(lp2925
S'29'
p2926
aS'2.0'
p2927
asS'[71.0, 73.0, 74.0, 192.0]'
p2928
(lp2929
S'29'
p2930
aS'2.0'
p2931
asS'[240.0, 245.0]'
p2932
(lp2933
S'27'
p2934
aS'4.0'
p2935
asS'[9.0, 21.0]'
p2936
(lp2937
S'29'
p2938
aS'2.0'
p2939
asS'[150.0, 153.0, 305.0]'
p2940
(lp2941
S'29'
p2942
aS'2.0'
p2943
asS'[243.0, 280.0, 305.0]'
p2944
(lp2945
S'22'
p2946
aS'9.0'
p2947
asS'[100.0, 160.0, 305.0]'
p2948
(lp2949
S'28'
p2950
aS'3.0'
p2951
asS'[72.0, 143.0]'
p2952
(lp2953
S'28'
p2954
aS'3.0'
p2955
asS'[76.0, 218.0]'
p2956
(lp2957
S'25'
p2958
aS'6.0'
p2959
asS'[174.0, 219.0]'
p2960
(lp2961
S'28'
p2962
aS'3.0'
p2963
asS'[71.0, 184.0]'
p2964
(lp2965
S'29'
p2966
aS'2.0'
p2967
asS'[172.0, 216.0]'
p2968
(lp2969
S'27'
p2970
aS'4.0'
p2971
asS'[96.0, 127.0]'
p2972
(lp2973
S'26'
p2974
aS'5.0'
p2975
asS'[72.0, 250.0]'
p2976
(lp2977
S'17'
p2978
aS'14.0'
p2979
asS'[53.0]'
p2980
(lp2981
S'26'
p2982
aS'5.0'
p2983
asS'[166.0, 168.0]'
p2984
(lp2985
S'29'
p2986
aS'2.0'
p2987
asS'[71.0, 198.0, 212.0]'
p2988
(lp2989
S'28'
p2990
aS'3.0'
p2991
asS'[218.0, 269.0, 305.0]'
p2992
(lp2993
S'29'
p2994
aS'2.0'
p2995
asS'[198.0, 216.0]'
p2996
(lp2997
S'27'
p2998
aS'4.0'
p2999
asS'[71.0, 74.0, 155.0]'
p3000
(lp3001
S'29'
p3002
aS'2.0'
p3003
asS'[97.0, 305.0]'
p3004
(lp3005
S'27'
p3006
aS'4.0'
p3007
asS'[56.0, 118.0]'
p3008
(lp3009
S'27'
p3010
aS'4.0'
p3011
asS'[23.0, 141.0]'
p3012
(lp3013
S'29'
p3014
aS'2.0'
p3015
asS'[58.0]'
p3016
(lp3017
S'19'
p3018
aS'12.0'
p3019
asS'[74.0, 79.0]'
p3020
(lp3021
S'29'
p3022
aS'2.0'
p3023
asS'[244.0, 274.0]'
p3024
(lp3025
S'11'
p3026
aS'22.0'
p3027
asS'[69.0, 71.0]'
p3028
(lp3029
S'29'
p3030
aS'2.0'
p3031
asS'[14.0, 144.0]'
p3032
(lp3033
S'29'
p3034
aS'2.0'
p3035
asS'[73.0, 228.0]'
p3036
(lp3037
S'29'
p3038
aS'2.0'
p3039
asS'[72.0, 73.0, 227.0]'
p3040
(lp3041
S'29'
p3042
aS'2.0'
p3043
asS'[278.0]'
p3044
(lp3045
g347
aS'25.0'
p3046
asS'[17.0, 40.0, 78.0, 91.0]'
p3047
(lp3048
S'29'
p3049
aS'2.0'
p3050
asS'[76.0, 154.0]'
p3051
(lp3052
S'17'
p3053
aS'14.0'
p3054
asS'[71.0, 74.0, 216.0]'
p3055
(lp3056
S'24'
p3057
aS'7.0'
p3058
asS'[217.0, 226.0]'
p3059
(lp3060
S'29'
p3061
aS'2.0'
p3062
asS'[234.0, 276.0, 305.0]'
p3063
(lp3064
S'25'
p3065
aS'6.0'
p3066
asS'[80.0, 220.0]'
p3067
(lp3068
S'29'
p3069
aS'2.0'
p3070
asS'[115.0, 180.0]'
p3071
(lp3072
S'27'
p3073
aS'4.0'
p3074
asS'[74.0, 155.0, 216.0]'
p3075
(lp3076
S'29'
p3077
aS'2.0'
p3078
asS'[3.0, 131.0]'
p3079
(lp3080
S'29'
p3081
aS'2.0'
p3082
asS'[51.0]'
p3083
(lp3084
S'20'
p3085
aS'11.0'
p3086
asS'[107.0]'
p3087
(lp3088
S'24'
p3089
aS'7.0'
p3090
asS'[35.0, 122.0]'
p3091
(lp3092
S'27'
p3093
aS'4.0'
p3094
asS'[24.0, 222.0]'
p3095
(lp3096
S'28'
p3097
aS'3.0'
p3098
asS'[78.0, 218.0, 219.0]'
p3099
(lp3100
S'28'
p3101
aS'3.0'
p3102
asS'[248.0, 259.0, 305.0]'
p3103
(lp3104
S'25'
p3105
aS'6.0'
p3106
asS'[242.0, 247.0]'
p3107
(lp3108
S'27'
p3109
aS'4.0'
p3110
asS'[66.0, 112.0]'
p3111
(lp3112
S'29'
p3113
aS'2.0'
p3114
asS'[271.0]'
p3115
(lp3116
S'23'
p3117
aS'8.0'
p3118
asS'[61.0, 76.0]'
p3119
(lp3120
S'27'
p3121
aS'4.0'
p3122
asS'[156.0, 170.0]'
p3123
(lp3124
S'29'
p3125
aS'2.0'
p3126
asS'[41.0, 125.0]'
p3127
(lp3128
S'27'
p3129
aS'4.0'
p3130
asS'[82.0, 141.0]'
p3131
(lp3132
S'27'
p3133
aS'4.0'
p3134
asS'[235.0, 305.0]'
p3135
(lp3136
g538
aS'29.0'
p3137
asS'[72.0, 204.0, 217.0]'
p3138
(lp3139
S'28'
p3140
aS'3.0'
p3141
asS'[71.0, 73.0, 74.0, 227.0]'
p3142
(lp3143
S'29'
p3144
aS'2.0'
p3145
asS'[158.0, 199.0]'
p3146
(lp3147
S'29'
p3148
aS'2.0'
p3149
asS'[72.0, 145.0]'
p3150
(lp3151
S'28'
p3152
aS'3.0'
p3153
asS'[71.0, 195.0, 207.0]'
p3154
(lp3155
S'29'
p3156
aS'2.0'
p3157
asS'[72.0, 82.0, 217.0, 218.0, 219.0]'
p3158
(lp3159
S'29'
p3160
aS'2.0'
p3161
asS'[47.0, 109.0]'
p3162
(lp3163
S'26'
p3164
aS'5.0'
p3165
asS'[72.0, 73.0, 74.0, 154.0]'
p3166
(lp3167
S'29'
p3168
aS'2.0'
p3169
asS'[56.0, 77.0, 198.0]'
p3170
(lp3171
S'29'
p3172
aS'2.0'
p3173
asS'[89.0, 99.0]'
p3174
(lp3175
S'26'
p3176
aS'5.0'
p3177
asS'[158.0]'
p3178
(lp3179
S'24'
p3180
aS'7.0'
p3181
asS'[40.0, 91.0]'
p3182
(lp3183
S'29'
p3184
aS'2.0'
p3185
asS'[74.0, 219.0, 306.0]'
p3186
(lp3187
S'29'
p3188
aS'2.0'
p3189
asS'[51.0, 73.0, 96.0]'
p3190
(lp3191
S'29'
p3192
aS'2.0'
p3193
asS'[72.0, 76.0, 236.0]'
p3194
(lp3195
S'27'
p3196
aS'4.0'
p3197
asS'[72.0, 74.0, 216.0]'
p3198
(lp3199
S'29'
p3200
aS'2.0'
p3201
asS'[105.0]'
p3202
(lp3203
S'28'
p3204
aS'3.0'
p3205
asS'[189.0, 195.0, 305.0]'
p3206
(lp3207
S'29'
p3208
aS'2.0'
p3209
asS'[28.0, 138.0]'
p3210
(lp3211
S'28'
p3212
aS'3.0'
p3213
asS'[73.0, 172.0, 217.0]'
p3214
(lp3215
S'25'
p3216
aS'6.0'
p3217
asS'[89.0, 108.0]'
p3218
(lp3219
S'23'
p3220
aS'8.0'
p3221
asS'[73.0, 82.0, 156.0]'
p3222
(lp3223
S'29'
p3224
aS'2.0'
p3225
asS'[46.0, 79.0]'
p3226
(lp3227
S'28'
p3228
aS'3.0'
p3229
asS'[90.0, 100.0]'
p3230
(lp3231
S'24'
p3232
aS'7.0'
p3233
asS'[72.0, 252.0]'
p3234
(lp3235
S'27'
p3236
aS'4.0'
p3237
asS'[81.0, 217.0, 219.0]'
p3238
(lp3239
S'29'
p3240
aS'2.0'
p3241
asS'[89.0, 107.0, 140.0]'
p3242
(lp3243
S'29'
p3244
aS'2.0'
p3245
asS'[90.0, 121.0]'
p3246
(lp3247
S'19'
p3248
aS'12.0'
p3249
asS'[71.0, 195.0, 207.0, 216.0]'
p3250
(lp3251
S'29'
p3252
aS'2.0'
p3253
asS'[133.0, 216.0]'
p3254
(lp3255
S'29'
p3256
aS'2.0'
p3257
asS'[99.0, 305.0]'
p3258
(lp3259
S'20'
p3260
aS'11.0'
p3261
asS'[242.0, 281.0, 305.0]'
p3262
(lp3263
S'24'
p3264
aS'7.0'
p3265
asS'[11.0, 27.0]'
p3266
(lp3267
S'27'
p3268
aS'4.0'
p3269
asS'[72.0, 208.0]'
p3270
(lp3271
S'24'
p3272
aS'7.0'
p3273
asS'[61.0, 73.0]'
p3274
(lp3275
S'25'
p3276
aS'6.0'
p3277
asS'[2.0, 158.0]'
p3278
(lp3279
S'29'
p3280
aS'2.0'
p3281
asS'[127.0, 173.0]'
p3282
(lp3283
S'29'
p3284
aS'2.0'
p3285
asS'[73.0, 225.0]'
p3286
(lp3287
S'29'
p3288
aS'2.0'
p3289
asS'[73.0, 230.0]'
p3290
(lp3291
S'29'
p3292
aS'2.0'
p3293
asS'[197.0, 305.0]'
p3294
(lp3295
S'23'
p3296
aS'8.0'
p3297
asS'[70.0, 92.0]'
p3298
(lp3299
S'19'
p3300
aS'12.0'
p3301
asS'[73.0, 227.0]'
p3302
(lp3303
S'29'
p3304
aS'2.0'
p3305
asS'[123.0, 166.0]'
p3306
(lp3307
S'29'
p3308
aS'2.0'
p3309
asS'[23.0, 118.0]'
p3310
(lp3311
S'26'
p3312
aS'5.0'
p3313
asS'[95.0, 116.0, 120.0]'
p3314
(lp3315
S'29'
p3316
aS'2.0'
p3317
asS'[96.0, 140.0, 305.0]'
p3318
(lp3319
S'28'
p3320
aS'3.0'
p3321
asS'[192.0]'
p3322
(lp3323
S'25'
p3324
aS'6.0'
p3325
asS'[228.0, 277.0]'
p3326
(lp3327
S'15'
p3328
aS'16.0'
p3329
asS'[244.0, 274.0, 305.0]'
p3330
(lp3331
S'23'
p3332
aS'8.0'
p3333
asS'[62.0, 74.0, 75.0]'
p3334
(lp3335
S'28'
p3336
aS'3.0'
p3337
asS'[90.0, 102.0]'
p3338
(lp3339
S'22'
p3340
aS'9.0'
p3341
asS'[55.0]'
p3342
(lp3343
S'18'
p3344
aS'13.0'
p3345
asS'[71.0, 72.0, 207.0]'
p3346
(lp3347
S'28'
p3348
aS'3.0'
p3349
asS'[31.0]'
p3350
(lp3351
S'22'
p3352
aS'9.0'
p3353
asS'[143.0, 159.0]'
p3354
(lp3355
S'25'
p3356
aS'6.0'
p3357
asS'[103.0]'
p3358
(lp3359
S'16'
p3360
aS'15.0'
p3361
asS'[179.0, 183.0, 222.0]'
p3362
(lp3363
S'29'
p3364
aS'2.0'
p3365
asS'[137.0, 198.0]'
p3366
(lp3367
S'28'
p3368
aS'3.0'
p3369
asS'[147.0, 178.0]'
p3370
(lp3371
S'29'
p3372
aS'2.0'
p3373
asS'[247.0, 257.0]'
p3374
(lp3375
S'23'
p3376
aS'8.0'
p3377
asS'[18.0, 77.0, 92.0]'
p3378
(lp3379
S'27'
p3380
aS'4.0'
p3381
asS'[169.0, 234.0]'
p3382
(lp3383
S'10'
p3384
aS'23.0'
p3385
asS'[72.0, 73.0, 228.0]'
p3386
(lp3387
S'29'
p3388
aS'2.0'
p3389
asS'[47.0, 58.0, 109.0]'
p3390
(lp3391
S'29'
p3392
aS'2.0'
p3393
asS'[196.0]'
p3394
(lp3395
S'23'
p3396
aS'8.0'
p3397
asS'[62.0, 72.0]'
p3398
(lp3399
S'26'
p3400
aS'5.0'
p3401
asS'[77.0, 217.0]'
p3402
(lp3403
S'28'
p3404
aS'3.0'
p3405
asS'[57.0]'
p3406
(lp3407
S'19'
p3408
aS'12.0'
p3409
asS'[7.0, 102.0, 121.0]'
p3410
(lp3411
S'29'
p3412
aS'2.0'
p3413
asS'[143.0, 144.0, 158.0]'
p3414
(lp3415
S'29'
p3416
aS'2.0'
p3417
asS'[219.0, 269.0, 277.0, 305.0]'
p3418
(lp3419
S'29'
p3420
aS'2.0'
p3421
asS'[71.0, 185.0, 198.0]'
p3422
(lp3423
S'29'
p3424
aS'2.0'
p3425
asS'[198.0, 205.0, 206.0]'
p3426
(lp3427
S'29'
p3428
aS'2.0'
p3429
asS'[71.0, 74.0, 75.0, 154.0]'
p3430
(lp3431
S'28'
p3432
aS'3.0'
p3433
asS'[71.0, 72.0, 217.0, 240.0]'
p3434
(lp3435
S'29'
p3436
aS'2.0'
p3437
asS'[62.0, 157.0]'
p3438
(lp3439
S'29'
p3440
aS'2.0'
p3441
asS'[238.0, 247.0]'
p3442
(lp3443
S'29'
p3444
aS'2.0'
p3445
asS'[71.0, 81.0]'
p3446
(lp3447
S'29'
p3448
aS'2.0'
p3449
asS'[74.0, 81.0, 217.0, 219.0]'
p3450
(lp3451
S'29'
p3452
aS'2.0'
p3453
asS'[151.0, 277.0]'
p3454
(lp3455
S'24'
p3456
aS'7.0'
p3457
asS'[75.0, 252.0]'
p3458
(lp3459
S'28'
p3460
aS'3.0'
p3461
asS'[72.0, 73.0, 76.0, 216.0]'
p3462
(lp3463
S'28'
p3464
aS'3.0'
p3465
asS'[218.0, 219.0, 269.0, 277.0, 305.0]'
p3466
(lp3467
S'29'
p3468
aS'2.0'
p3469
asS'[241.0, 278.0, 305.0]'
p3470
(lp3471
S'22'
p3472
aS'9.0'
p3473
asS'[100.0, 144.0, 161.0]'
p3474
(lp3475
S'29'
p3476
aS'2.0'
p3477
asS'[85.0]'
p3478
(lp3479
S'23'
p3480
aS'8.0'
p3481
asS'[112.0, 148.0]'
p3482
(lp3483
S'29'
p3484
aS'2.0'
p3485
asS'[75.0, 76.0, 236.0]'
p3486
(lp3487
S'29'
p3488
aS'2.0'
p3489
asS'[91.0, 120.0]'
p3490
(lp3491
S'28'
p3492
aS'3.0'
p3493
asS'[75.0, 76.0, 252.0]'
p3494
(lp3495
S'29'
p3496
aS'2.0'
p3497
asS'[96.0, 116.0, 124.0]'
p3498
(lp3499
S'29'
p3500
aS'2.0'
p3501
asS'[71.0, 77.0, 216.0]'
p3502
(lp3503
S'29'
p3504
aS'2.0'
p3505
asS'[52.0, 95.0]'
p3506
(lp3507
S'17'
p3508
aS'14.0'
p3509
asS'[73.0, 74.0, 217.0]'
p3510
(lp3511
S'29'
p3512
aS'2.0'
p3513
asS'[58.0, 88.0]'
p3514
(lp3515
S'29'
p3516
aS'2.0'
p3517
asS'[107.0, 140.0, 305.0]'
p3518
(lp3519
S'29'
p3520
aS'2.0'
p3521
asS'[179.0, 183.0, 198.0]'
p3522
(lp3523
S'28'
p3524
aS'3.0'
p3525
asS'[78.0, 120.0]'
p3526
(lp3527
S'25'
p3528
aS'6.0'
p3529
asS'[21.0, 102.0]'
p3530
(lp3531
S'27'
p3532
aS'4.0'
p3533
asS'[218.0, 269.0, 277.0, 305.0]'
p3534
(lp3535
S'29'
p3536
aS'2.0'
p3537
asS'[71.0, 73.0, 74.0, 216.0]'
p3538
(lp3539
S'29'
p3540
aS'2.0'
p3541
asS'[45.0, 55.0, 89.0, 119.0]'
p3542
(lp3543
S'29'
p3544
aS'2.0'
p3545
asS'[240.0, 278.0]'
p3546
(lp3547
S'11'
p3548
aS'22.0'
p3549
asS'[71.0, 72.0, 74.0, 216.0]'
p3550
(lp3551
S'29'
p3552
aS'2.0'
p3553
asS'[71.0, 72.0, 236.0]'
p3554
(lp3555
S'28'
p3556
aS'3.0'
p3557
asS'[188.0, 305.0]'
p3558
(lp3559
g538
aS'29.0'
p3560
asS'[73.0, 74.0, 172.0]'
p3561
(lp3562
S'29'
p3563
aS'2.0'
p3564
asS'[71.0, 255.0]'
p3565
(lp3566
S'27'
p3567
aS'4.0'
p3568
asS'[259.0, 305.0]'
p3569
(lp3570
S'13'
p3571
aS'18.0'
p3572
asS'[72.0, 204.0]'
p3573
(lp3574
S'24'
p3575
aS'7.0'
p3576
asS'[100.0, 161.0, 305.0]'
p3577
(lp3578
S'28'
p3579
aS'3.0'
p3580
asS'[270.0, 279.0]'
p3581
(lp3582
S'28'
p3583
aS'3.0'
p3584
asS'[71.0, 77.0, 198.0, 216.0]'
p3585
(lp3586
S'29'
p3587
aS'2.0'
p3588
asS'[169.0, 305.0]'
p3589
(lp3590
S'23'
p3591
aS'8.0'
p3592
asS'[17.0, 99.0, 143.0]'
p3593
(lp3594
S'29'
p3595
aS'2.0'
p3596
asS'[247.0, 257.0, 305.0]'
p3597
(lp3598
S'23'
p3599
aS'8.0'
p3600
asS'[73.0, 95.0, 156.0]'
p3601
(lp3602
S'29'
p3603
aS'2.0'
p3604
asS'[71.0, 242.0]'
p3605
(lp3606
S'29'
p3607
aS'2.0'
p3608
asS'[73.0, 74.0, 96.0, 142.0]'
p3609
(lp3610
S'29'
p3611
aS'2.0'
p3612
asS'[16.0, 24.0, 118.0]'
p3613
(lp3614
S'27'
p3615
aS'4.0'
p3616
asS'[72.0, 74.0, 228.0]'
p3617
(lp3618
S'29'
p3619
aS'2.0'
p3620
asS'[174.0, 217.0, 218.0, 219.0]'
p3621
(lp3622
S'29'
p3623
aS'2.0'
p3624
asS'[71.0, 253.0]'
p3625
(lp3626
S'27'
p3627
aS'4.0'
p3628
asS'[71.0, 72.0, 235.0]'
p3629
(lp3630
S'28'
p3631
aS'3.0'
p3632
asS'[71.0, 81.0, 174.0, 217.0]'
p3633
(lp3634
S'29'
p3635
aS'2.0'
p3636
asS'[87.0]'
p3637
(lp3638
S'27'
p3639
aS'4.0'
p3640
asS'[125.0, 159.0]'
p3641
(lp3642
S'27'
p3643
aS'4.0'
p3644
asS'[51.0, 128.0]'
p3645
(lp3646
S'29'
p3647
aS'2.0'
p3648
asS'[72.0, 200.0]'
p3649
(lp3650
S'24'
p3651
aS'7.0'
p3652
asS'[72.0, 78.0]'
p3653
(lp3654
S'2'
p3655
aS'44.0'
p3656
asS'[75.0, 76.0, 155.0, 216.0]'
p3657
(lp3658
S'29'
p3659
aS'2.0'
p3660
asS'[72.0, 254.0]'
p3661
(lp3662
S'25'
p3663
aS'6.0'
p3664
asS'[72.0, 78.0, 226.0]'
p3665
(lp3666
S'29'
p3667
aS'2.0'
p3668
asS'[48.0, 72.0, 74.0]'
p3669
(lp3670
S'29'
p3671
aS'2.0'
p3672
asS'[71.0, 251.0]'
p3673
(lp3674
S'28'
p3675
aS'3.0'
p3676
asS'[193.0]'
p3677
(lp3678
S'24'
p3679
aS'7.0'
p3680
asS'[51.0, 61.0, 109.0]'
p3681
(lp3682
S'26'
p3683
aS'5.0'
p3684
asS'[204.0]'
p3685
(lp3686
S'24'
p3687
aS'7.0'
p3688
asS'[112.0, 178.0]'
p3689
(lp3690
S'29'
p3691
aS'2.0'
p3692
asS'[236.0, 277.0]'
p3693
(lp3694
S'10'
p3695
aS'23.0'
p3696
asS'[48.0, 72.0, 76.0]'
p3697
(lp3698
S'29'
p3699
aS'2.0'
p3700
asS'[72.0, 74.0, 218.0, 219.0]'
p3701
(lp3702
S'29'
p3703
aS'2.0'
p3704
asS'[95.0, 115.0]'
p3705
(lp3706
S'29'
p3707
aS'2.0'
p3708
asS'[72.0, 73.0, 74.0]'
p3709
(lp3710
S'29'
p3711
aS'2.0'
p3712
asS'[72.0, 76.0, 82.0, 218.0]'
p3713
(lp3714
S'29'
p3715
aS'2.0'
p3716
asS'[75.0, 76.0, 203.0]'
p3717
(lp3718
S'29'
p3719
aS'2.0'
p3720
asS'[72.0, 73.0, 193.0]'
p3721
(lp3722
S'29'
p3723
aS'2.0'
p3724
asS'[55.0, 85.0]'
p3725
(lp3726
S'24'
p3727
aS'7.0'
p3728
asS'[193.0, 216.0]'
p3729
(lp3730
S'26'
p3731
aS'5.0'
p3732
asS'[74.0, 172.0]'
p3733
(lp3734
S'26'
p3735
aS'5.0'
p3736
asS'[71.0, 72.0, 217.0, 242.0]'
p3737
(lp3738
S'29'
p3739
aS'2.0'
p3740
asS'[54.0]'
p3741
(lp3742
S'26'
p3743
aS'5.0'
p3744
asS'[81.0, 217.0, 218.0, 219.0]'
p3745
(lp3746
S'29'
p3747
aS'2.0'
p3748
asS'[174.0, 178.0, 219.0]'
p3749
(lp3750
S'29'
p3751
aS'2.0'
p3752
asS'[40.0, 126.0]'
p3753
(lp3754
S'27'
p3755
aS'4.0'
p3756
asS'[66.0, 68.0, 221.0]'
p3757
(lp3758
S'27'
p3759
aS'4.0'
p3760
asS'[71.0, 72.0, 73.0, 216.0]'
p3761
(lp3762
S'29'
p3763
aS'2.0'
p3764
asS'[71.0, 72.0, 216.0, 242.0]'
p3765
(lp3766
S'29'
p3767
aS'2.0'
p3768
asS'[142.0]'
p3769
(lp3770
S'27'
p3771
aS'4.0'
p3772
asS'[76.0, 236.0]'
p3773
(lp3774
S'27'
p3775
aS'4.0'
p3776
asS'[71.0, 149.0]'
p3777
(lp3778
S'28'
p3779
aS'3.0'
p3780
asS'[96.0, 116.0, 120.0]'
p3781
(lp3782
S'28'
p3783
aS'3.0'
p3784
asS'[72.0, 78.0, 218.0, 219.0]'
p3785
(lp3786
S'28'
p3787
aS'3.0'
p3788
asS'[90.0, 92.0, 118.0]'
p3789
(lp3790
S'29'
p3791
aS'2.0'
p3792
asS'[243.0, 282.0, 305.0]'
p3793
(lp3794
S'24'
p3795
aS'7.0'
p3796
asS'[72.0, 73.0, 76.0, 192.0]'
p3797
(lp3798
S'29'
p3799
aS'2.0'
p3800
asS'[218.0, 219.0, 269.0, 305.0]'
p3801
(lp3802
S'29'
p3803
aS'2.0'
p3804
asS'[74.0, 155.0, 306.0]'
p3805
(lp3806
S'29'
p3807
aS'2.0'
p3808
asS'[51.0, 67.0]'
p3809
(lp3810
S'28'
p3811
aS'3.0'
p3812
asS'[245.0, 270.0]'
p3813
(lp3814
S'27'
p3815
aS'4.0'
p3816
asS'[117.0, 164.0]'
p3817
(lp3818
S'24'
p3819
aS'7.0'
p3820
asS'[127.0, 137.0, 213.0]'
p3821
(lp3822
S'28'
p3823
aS'3.0'
p3824
asS'[231.0, 280.0]'
p3825
(lp3826
S'15'
p3827
aS'16.0'
p3828
asS'[174.0]'
p3829
(lp3830
S'26'
p3831
aS'5.0'
p3832
asS'[92.0, 118.0]'
p3833
(lp3834
S'27'
p3835
aS'4.0'
p3836
asS'[72.0, 192.0, 217.0]'
p3837
(lp3838
S'29'
p3839
aS'2.0'
p3840
asS'[17.0, 91.0]'
p3841
(lp3842
S'24'
p3843
aS'7.0'
p3844
asS'[72.0, 94.0]'
p3845
(lp3846
S'28'
p3847
aS'3.0'
p3848
asS'[82.0, 217.0, 218.0, 219.0]'
p3849
(lp3850
S'29'
p3851
aS'2.0'
p3852
asS'[72.0, 73.0, 74.0, 227.0]'
p3853
(lp3854
S'29'
p3855
aS'2.0'
p3856
asS'[100.0, 124.0, 305.0]'
p3857
(lp3858
S'29'
p3859
aS'2.0'
p3860
asS'[71.0, 250.0]'
p3861
(lp3862
S'17'
p3863
aS'14.0'
p3864
asS'[112.0, 147.0]'
p3865
(lp3866
S'28'
p3867
aS'3.0'
p3868
asS'[121.0, 305.0]'
p3869
(lp3870
S'23'
p3871
aS'8.0'
p3872
asS'[215.0, 218.0]'
p3873
(lp3874
S'28'
p3875
aS'3.0'
p3876
asS'[71.0, 75.0, 81.0, 217.0]'
p3877
(lp3878
S'29'
p3879
aS'2.0'
p3880
asS'[44.0, 159.0]'
p3881
(lp3882
S'29'
p3883
aS'2.0'
p3884
asS'[71.0, 73.0, 74.0, 145.0]'
p3885
(lp3886
S'29'
p3887
aS'2.0'
p3888
asS'[1.0, 159.0]'
p3889
(lp3890
S'27'
p3891
aS'4.0'
p3892
asS'[19.0, 133.0]'
p3893
(lp3894
S'28'
p3895
aS'3.0'
p3896
asS'[16.0, 24.0]'
p3897
(lp3898
S'17'
p3899
aS'14.0'
p3900
asS'[187.0, 189.0, 199.0, 305.0]'
p3901
(lp3902
S'29'
p3903
aS'2.0'
p3904
asS'[101.0]'
p3905
(lp3906
S'21'
p3907
aS'10.0'
p3908
asS'[72.0, 76.0, 203.0]'
p3909
(lp3910
S'29'
p3911
aS'2.0'
p3912
asS'[188.0, 275.0, 305.0]'
p3913
(lp3914
S'23'
p3915
aS'8.0'
p3916
asS'[76.0, 234.0]'
p3917
(lp3918
S'29'
p3919
aS'2.0'
p3920
asS'[71.0, 72.0, 216.0, 240.0]'
p3921
(lp3922
S'29'
p3923
aS'2.0'
p3924
asS'[74.0, 75.0, 216.0]'
p3925
(lp3926
S'28'
p3927
aS'3.0'
p3928
asS'[10.0, 305.0]'
p3929
(lp3930
S'21'
p3931
aS'10.0'
p3932
asS'[72.0, 73.0, 74.0, 225.0]'
p3933
(lp3934
S'29'
p3935
aS'2.0'
p3936
asS'[303.0]'
p3937
(lp3938
S'28'
p3939
aS'3.0'
p3940
asS'[66.0, 221.0]'
p3941
(lp3942
S'18'
p3943
aS'13.0'
p3944
asS'[102.0, 161.0]'
p3945
(lp3946
S'27'
p3947
aS'4.0'
p3948
asS'[71.0, 72.0, 227.0]'
p3949
(lp3950
S'29'
p3951
aS'2.0'
p3952
asS'[218.0, 269.0]'
p3953
(lp3954
S'29'
p3955
aS'2.0'
p3956
asS'[75.0, 76.0, 235.0]'
p3957
(lp3958
S'29'
p3959
aS'2.0'
p3960
asS'[22.0, 101.0]'
p3961
(lp3962
S'28'
p3963
aS'3.0'
p3964
asS'[76.0, 203.0]'
p3965
(lp3966
S'29'
p3967
aS'2.0'
p3968
asS'[257.0, 305.0]'
p3969
(lp3970
S'21'
p3971
aS'10.0'
p3972
asS'[5.0, 23.0, 40.0]'
p3973
(lp3974
S'29'
p3975
aS'2.0'
p3976
asS'[71.0, 72.0, 73.0, 74.0, 145.0]'
p3977
(lp3978
S'29'
p3979
aS'2.0'
p3980
asS'[17.0, 139.0]'
p3981
(lp3982
S'28'
p3983
aS'3.0'
p3984
asS'[78.0, 198.0, 240.0]'
p3985
(lp3986
S'29'
p3987
aS'2.0'
p3988
asS'[268.0]'
p3989
(lp3990
S'27'
p3991
aS'4.0'
p3992
asS'[72.0, 228.0]'
p3993
(lp3994
S'29'
p3995
aS'2.0'
p3996
asS'[71.0, 72.0, 230.0]'
p3997
(lp3998
S'29'
p3999
aS'2.0'
p4000
asS'[231.0, 280.0, 305.0]'
p4001
(lp4002
S'16'
p4003
aS'15.0'
p4004
asS'[71.0, 73.0, 74.0, 96.0]'
p4005
(lp4006
S'29'
p4007
aS'2.0'
p4008
asS'[116.0, 123.0, 199.0]'
p4009
(lp4010
S'29'
p4011
aS'2.0'
p4012
asS'[37.0, 121.0]'
p4013
(lp4014
S'27'
p4015
aS'4.0'
p4016
asS'[71.0, 252.0]'
p4017
(lp4018
S'27'
p4019
aS'4.0'
p4020
asS'[63.0]'
p4021
(lp4022
S'29'
p4023
aS'2.0'
p4024
asS'[61.0]'
p4025
(lp4026
S'24'
p4027
aS'7.0'
p4028
asS'[78.0, 240.0]'
p4029
(lp4030
S'29'
p4031
aS'2.0'
p4032
asS'[74.0, 81.0, 216.0]'
p4033
(lp4034
S'28'
p4035
aS'3.0'
p4036
asS'[95.0, 116.0, 140.0]'
p4037
(lp4038
S'29'
p4039
aS'2.0'
p4040
asS'[23.0, 40.0]'
p4041
(lp4042
S'29'
p4043
aS'2.0'
p4044
asS'[188.0, 210.0]'
p4045
(lp4046
S'25'
p4047
aS'6.0'
p4048
asS'[79.0, 81.0]'
p4049
(lp4050
S'27'
p4051
aS'4.0'
p4052
asS'[72.0, 74.0, 225.0]'
p4053
(lp4054
S'29'
p4055
aS'2.0'
p4056
asS'[56.0, 90.0, 118.0]'
p4057
(lp4058
S'27'
p4059
aS'4.0'
p4060
asS'[221.0, 270.0]'
p4061
(lp4062
S'28'
p4063
aS'3.0'
p4064
asS'[7.0, 101.0, 305.0]'
p4065
(lp4066
S'27'
p4067
aS'4.0'
p4068
asS'[82.0, 147.0]'
p4069
(lp4070
S'27'
p4071
aS'4.0'
p4072
asS'[15.0, 23.0]'
p4073
(lp4074
S'20'
p4075
aS'11.0'
p4076
asS'[80.0]'
p4077
(lp4078
S'25'
p4079
aS'6.0'
p4080
asS'[187.0, 195.0, 305.0]'
p4081
(lp4082
S'28'
p4083
aS'3.0'
p4084
asS'[74.0, 81.0, 218.0]'
p4085
(lp4086
S'28'
p4087
aS'3.0'
p4088
asS'[72.0, 73.0, 74.0, 193.0, 217.0]'
p4089
(lp4090
S'29'
p4091
aS'2.0'
p4092
asS'[73.0, 76.0, 155.0]'
p4093
(lp4094
S'29'
p4095
aS'2.0'
p4096
asS'[80.0, 192.0]'
p4097
(lp4098
S'29'
p4099
aS'2.0'
p4100
asS'[86.0, 119.0]'
p4101
(lp4102
S'29'
p4103
aS'2.0'
p4104
asS'[242.0, 280.0, 305.0]'
p4105
(lp4106
S'11'
p4107
aS'22.0'
p4108
asS'[216.0, 241.0]'
p4109
(lp4110
S'24'
p4111
aS'7.0'
p4112
asS'[115.0, 180.0, 306.0]'
p4113
(lp4114
S'27'
p4115
aS'4.0'
p4116
asS'[5.0, 11.0]'
p4117
(lp4118
S'24'
p4119
aS'7.0'
p4120
asS'[5.0, 11.0, 23.0, 29.0]'
p4121
(lp4122
S'29'
p4123
aS'2.0'
p4124
asS'[16.0, 26.0]'
p4125
(lp4126
S'28'
p4127
aS'3.0'
p4128
asS'[71.0, 72.0, 203.0]'
p4129
(lp4130
S'28'
p4131
aS'3.0'
p4132
asS'[117.0, 162.0]'
p4133
(lp4134
S'26'
p4135
aS'5.0'
p4136
asS'[231.0]'
p4137
(lp4138
S'15'
p4139
aS'16.0'
p4140
asS'[124.0]'
p4141
(lp4142
S'27'
p4143
aS'4.0'
p4144
asS'[72.0, 76.0, 219.0]'
p4145
(lp4146
S'25'
p4147
aS'6.0'
p4148
asS'[71.0, 236.0]'
p4149
(lp4150
S'19'
p4151
aS'12.0'
p4152
asS'[128.0, 166.0]'
p4153
(lp4154
S'27'
p4155
aS'4.0'
p4156
asS'[51.0, 96.0]'
p4157
(lp4158
S'27'
p4159
aS'4.0'
p4160
asS'[152.0, 277.0, 305.0]'
p4161
(lp4162
S'11'
p4163
aS'22.0'
p4164
asS'[74.0, 81.0]'
p4165
(lp4166
S'26'
p4167
aS'5.0'
p4168
asS'[15.0]'
p4169
(lp4170
S'20'
p4171
aS'11.0'
p4172
asS'[48.0, 72.0, 74.0, 216.0]'
p4173
(lp4174
S'29'
p4175
aS'2.0'
p4176
asS'[95.0, 140.0, 305.0]'
p4177
(lp4178
S'28'
p4179
aS'3.0'
p4180
asS'[228.0, 276.0]'
p4181
(lp4182
S'29'
p4183
aS'2.0'
p4184
asS'[19.0, 23.0, 40.0]'
p4185
(lp4186
S'29'
p4187
aS'2.0'
p4188
asS'[72.0, 218.0, 219.0]'
p4189
(lp4190
S'26'
p4191
aS'5.0'
p4192
asS'[3.0, 78.0]'
p4193
(lp4194
S'28'
p4195
aS'3.0'
p4196
asS'[74.0, 77.0, 216.0]'
p4197
(lp4198
S'29'
p4199
aS'2.0'
p4200
asS'[73.0, 192.0, 217.0]'
p4201
(lp4202
S'27'
p4203
aS'4.0'
p4204
asS'[206.0]'
p4205
(lp4206
S'25'
p4207
aS'6.0'
p4208
asS'[153.0, 218.0, 219.0]'
p4209
(lp4210
S'29'
p4211
aS'2.0'
p4212
asS'[4.0, 77.0]'
p4213
(lp4214
S'27'
p4215
aS'4.0'
p4216
asS'[71.0, 155.0, 216.0]'
p4217
(lp4218
S'29'
p4219
aS'2.0'
p4220
asS'[37.0, 108.0, 121.0]'
p4221
(lp4222
S'29'
p4223
aS'2.0'
p4224
asS'[71.0, 77.0, 235.0]'
p4225
(lp4226
S'27'
p4227
aS'4.0'
p4228
asS'[67.0]'
p4229
(lp4230
S'27'
p4231
aS'4.0'
p4232
asS'[8.0, 99.0, 305.0]'
p4233
(lp4234
S'27'
p4235
aS'4.0'
p4236
asS'[177.0, 211.0]'
p4237
(lp4238
S'29'
p4239
aS'2.0'
p4240
asS'[6.0, 18.0]'
p4241
(lp4242
S'28'
p4243
aS'3.0'
p4244
asS'[69.0, 71.0, 77.0]'
p4245
(lp4246
S'29'
p4247
aS'2.0'
p4248
asS'[81.0, 174.0, 216.0]'
p4249
(lp4250
S'29'
p4251
aS'2.0'
p4252
asS'[80.0, 147.0]'
p4253
(lp4254
S'25'
p4255
aS'6.0'
p4256
asS'[120.0]'
p4257
(lp4258
S'23'
p4259
aS'8.0'
p4260
asS'[122.0]'
p4261
(lp4262
S'20'
p4263
aS'11.0'
p4264
asS'[218.0, 223.0]'
p4265
(lp4266
S'28'
p4267
aS'3.0'
p4268
asS'[248.0, 305.0]'
p4269
(lp4270
g538
aS'29.0'
p4271
asS'[51.0, 71.0, 96.0]'
p4272
(lp4273
S'29'
p4274
aS'2.0'
p4275
asS'[71.0, 72.0, 73.0, 192.0]'
p4276
(lp4277
S'29'
p4278
aS'2.0'
p4279
asS'[219.0, 306.0]'
p4280
(lp4281
S'29'
p4282
aS'2.0'
p4283
asS'[5.0, 11.0, 29.0]'
p4284
(lp4285
S'29'
p4286
aS'2.0'
p4287
asS'[72.0, 73.0, 76.0]'
p4288
(lp4289
S'28'
p4290
aS'3.0'
p4291
asS'[19.0, 122.0]'
p4292
(lp4293
S'27'
p4294
aS'4.0'
p4295
asS'[238.0, 247.0, 305.0]'
p4296
(lp4297
S'29'
p4298
aS'2.0'
p4299
asS'[149.0, 250.0]'
p4300
(lp4301
S'29'
p4302
aS'2.0'
p4303
asS'[4.0]'
p4304
(lp4305
S'25'
p4306
aS'6.0'
p4307
asS'[78.0, 226.0]'
p4308
(lp4309
S'29'
p4310
aS'2.0'
p4311
asS'[57.0, 109.0]'
p4312
(lp4313
S'27'
p4314
aS'4.0'
p4315
asS'[80.0, 147.0, 148.0]'
p4316
(lp4317
S'27'
p4318
aS'4.0'
p4319
asS'[54.0, 109.0]'
p4320
(lp4321
S'29'
p4322
aS'2.0'
p4323
asS'[45.0, 89.0, 119.0]'
p4324
(lp4325
S'29'
p4326
aS'2.0'
p4327
asS'[71.0, 73.0, 96.0]'
p4328
(lp4329
S'29'
p4330
aS'2.0'
p4331
asS'[109.0, 177.0, 220.0]'
p4332
(lp4333
S'29'
p4334
aS'2.0'
p4335
asS'[200.0]'
p4336
(lp4337
S'24'
p4338
aS'7.0'
p4339
asS'[71.0, 72.0, 239.0]'
p4340
(lp4341
S'28'
p4342
aS'3.0'
p4343
asS'[216.0, 244.0]'
p4344
(lp4345
S'27'
p4346
aS'4.0'
p4347
asS'[56.0, 138.0, 198.0]'
p4348
(lp4349
S'29'
p4350
aS'2.0'
p4351
asS'[71.0, 77.0, 217.0, 240.0]'
p4352
(lp4353
S'29'
p4354
aS'2.0'
p4355
asS'[72.0, 215.0, 218.0, 219.0]'
p4356
(lp4357
S'28'
p4358
aS'3.0'
p4359
asS'[71.0, 198.0]'
p4360
(lp4361
S'28'
p4362
aS'3.0'
p4363
asS'[268.0, 270.0]'
p4364
(lp4365
S'29'
p4366
aS'2.0'
p4367
asS'[71.0, 72.0, 74.0, 192.0]'
p4368
(lp4369
S'29'
p4370
aS'2.0'
p4371
asS'[108.0, 121.0, 305.0]'
p4372
(lp4373
S'29'
p4374
aS'2.0'
p4375
asS'[6.0]'
p4376
(lp4377
S'23'
p4378
aS'8.0'
p4379
asS'[189.0, 260.0, 305.0]'
p4380
(lp4381
S'16'
p4382
aS'15.0'
p4383
asS'[71.0, 72.0, 237.0]'
p4384
(lp4385
S'28'
p4386
aS'3.0'
p4387
asS'[72.0, 186.0, 195.0]'
p4388
(lp4389
S'29'
p4390
aS'2.0'
p4391
asS'[56.0, 86.0]'
p4392
(lp4393
S'27'
p4394
aS'4.0'
p4395
asS'[158.0, 200.0]'
p4396
(lp4397
S'26'
p4398
aS'5.0'
p4399
asS'[115.0, 159.0, 200.0]'
p4400
(lp4401
S'29'
p4402
aS'2.0'
p4403
asS'[202.0]'
p4404
(lp4405
S'28'
p4406
aS'3.0'
p4407
asS'[72.0, 73.0, 78.0, 155.0]'
p4408
(lp4409
S'29'
p4410
aS'2.0'
p4411
asS'[71.0, 234.0]'
p4412
(lp4413
S'27'
p4414
aS'4.0'
p4415
asS'[117.0, 189.0, 305.0]'
p4416
(lp4417
S'29'
p4418
aS'2.0'
p4419
asS'[75.0, 76.0]'
p4420
(lp4421
S'29'
p4422
aS'2.0'
p4423
asS'[4.0, 10.0]'
p4424
(lp4425
S'29'
p4426
aS'2.0'
p4427
asS'[72.0, 76.0, 234.0]'
p4428
(lp4429
S'29'
p4430
aS'2.0'
p4431
asS'[219.0, 276.0, 305.0]'
p4432
(lp4433
S'29'
p4434
aS'2.0'
p4435
asS'[218.0, 306.0]'
p4436
(lp4437
S'29'
p4438
aS'2.0'
p4439
asS'[99.0, 123.0]'
p4440
(lp4441
S'26'
p4442
aS'5.0'
p4443
asS'[201.0]'
p4444
(lp4445
S'28'
p4446
aS'3.0'
p4447
asS'[241.0, 246.0]'
p4448
(lp4449
S'27'
p4450
aS'4.0'
p4451
asS'[52.0, 62.0, 110.0]'
p4452
(lp4453
S'28'
p4454
aS'3.0'
p4455
asS'[71.0, 72.0, 73.0, 227.0]'
p4456
(lp4457
S'29'
p4458
aS'2.0'
p4459
asS'[258.0, 281.0, 305.0]'
p4460
(lp4461
S'28'
p4462
aS'3.0'
p4463
asS'[73.0, 74.0, 193.0, 306.0]'
p4464
(lp4465
S'29'
p4466
aS'2.0'
p4467
asS'[8.0, 102.0]'
p4468
(lp4469
S'27'
p4470
aS'4.0'
p4471
asS'[56.0, 159.0]'
p4472
(lp4473
S'29'
p4474
aS'2.0'
p4475
asS'[38.0, 122.0]'
p4476
(lp4477
S'27'
p4478
aS'4.0'
p4479
asS'[217.0, 218.0, 219.0]'
p4480
(lp4481
S'29'
p4482
aS'2.0'
p4483
asS'[233.0, 282.0, 305.0]'
p4484
(lp4485
S'16'
p4486
aS'15.0'
p4487
asS'[71.0, 73.0, 74.0, 185.0]'
p4488
(lp4489
S'29'
p4490
aS'2.0'
p4491
asS'[151.0, 169.0]'
p4492
(lp4493
S'22'
p4494
aS'9.0'
p4495
asS'[55.0, 89.0, 113.0]'
p4496
(lp4497
S'26'
p4498
aS'5.0'
p4499
asS'[92.0, 114.0]'
p4500
(lp4501
S'27'
p4502
aS'4.0'
p4503
asS'[144.0, 158.0]'
p4504
(lp4505
S'24'
p4506
aS'7.0'
p4507
asS'[51.0, 73.0]'
p4508
(lp4509
S'28'
p4510
aS'3.0'
p4511
asS'[72.0, 92.0]'
p4512
(lp4513
S'29'
p4514
aS'2.0'
p4515
asS'[73.0, 192.0]'
p4516
(lp4517
S'26'
p4518
aS'5.0'
p4519
asS'[73.0, 78.0]'
p4520
(lp4521
S'28'
p4522
aS'3.0'
p4523
asS'[71.0, 72.0, 143.0]'
p4524
(lp4525
S'29'
p4526
aS'2.0'
p4527
asS'[9.0, 305.0]'
p4528
(lp4529
S'21'
p4530
aS'10.0'
p4531
asS'[56.0, 84.0]'
p4532
(lp4533
S'24'
p4534
aS'7.0'
p4535
asS'[71.0, 216.0, 226.0]'
p4536
(lp4537
S'29'
p4538
aS'2.0'
p4539
asS'[86.0, 177.0]'
p4540
(lp4541
S'29'
p4542
aS'2.0'
p4543
asS'[112.0, 147.0, 178.0]'
p4544
(lp4545
S'29'
p4546
aS'2.0'
p4547
asS'[51.0, 109.0]'
p4548
(lp4549
S'20'
p4550
aS'11.0'
p4551
asS'[76.0, 192.0]'
p4552
(lp4553
S'29'
p4554
aS'2.0'
p4555
asS'[169.0, 227.0, 305.0]'
p4556
(lp4557
S'29'
p4558
aS'2.0'
p4559
asS'[73.0, 78.0, 155.0]'
p4560
(lp4561
S'29'
p4562
aS'2.0'
p4563
asS'[230.0, 279.0, 305.0]'
p4564
(lp4565
S'16'
p4566
aS'15.0'
p4567
asS'[135.0, 198.0]'
p4568
(lp4569
S'28'
p4570
aS'3.0'
p4571
asS'[172.0, 222.0]'
p4572
(lp4573
S'28'
p4574
aS'3.0'
p4575
asS'[71.0, 73.0, 154.0]'
p4576
(lp4577
S'29'
p4578
aS'2.0'
p4579
asS'[4.0, 22.0, 118.0]'
p4580
(lp4581
S'29'
p4582
aS'2.0'
p4583
asS'[229.0, 277.0]'
p4584
(lp4585
S'29'
p4586
aS'2.0'
p4587
asS'[78.0, 158.0]'
p4588
(lp4589
S'29'
p4590
aS'2.0'
p4591
asS'[2.0]'
p4592
(lp4593
S'27'
p4594
aS'4.0'
p4595
asS'[72.0, 76.0, 218.0]'
p4596
(lp4597
S'25'
p4598
aS'6.0'
p4599
asS'[71.0, 75.0, 255.0]'
p4600
(lp4601
S'29'
p4602
aS'2.0'
p4603
asS'[71.0, 198.0, 216.0, 240.0]'
p4604
(lp4605
S'28'
p4606
aS'3.0'
p4607
asS'[91.0, 108.0]'
p4608
(lp4609
S'29'
p4610
aS'2.0'
p4611
asS'[15.0, 23.0, 31.0]'
p4612
(lp4613
S'28'
p4614
aS'3.0'
p4615
asS'[199.0]'
p4616
(lp4617
S'24'
p4618
aS'7.0'
p4619
asS'[151.0]'
p4620
(lp4621
S'11'
p4622
aS'22.0'
p4623
asS'[218.0, 277.0, 305.0]'
p4624
(lp4625
S'27'
p4626
aS'4.0'
p4627
asS'[3.0, 21.0]'
p4628
(lp4629
S'26'
p4630
aS'5.0'
p4631
asS'[6.0, 41.0, 102.0]'
p4632
(lp4633
S'29'
p4634
aS'2.0'
p4635
asS'[250.0, 275.0, 305.0]'
p4636
(lp4637
S'29'
p4638
aS'2.0'
p4639
asS'[72.0, 217.0, 219.0]'
p4640
(lp4641
S'29'
p4642
aS'2.0'
p4643
asS'[242.0, 281.0]'
p4644
(lp4645
S'24'
p4646
aS'7.0'
p4647
asS'[71.0, 197.0]'
p4648
(lp4649
S'29'
p4650
aS'2.0'
p4651
asS'[74.0, 157.0]'
p4652
(lp4653
S'15'
p4654
aS'16.0'
p4655
asS'[74.0, 160.0]'
p4656
(lp4657
S'29'
p4658
aS'2.0'
p4659
asS'[61.0, 71.0, 73.0]'
p4660
(lp4661
S'29'
p4662
aS'2.0'
p4663
asS'[71.0, 72.0, 234.0]'
p4664
(lp4665
S'28'
p4666
aS'3.0'
p4667
asS'[19.0, 118.0]'
p4668
(lp4669
S'28'
p4670
aS'3.0'
p4671
asS'[72.0, 76.0, 216.0]'
p4672
(lp4673
S'25'
p4674
aS'6.0'
p4675
asS'[5.0, 29.0, 40.0]'
p4676
(lp4677
S'29'
p4678
aS'2.0'
p4679
asS'[91.0, 113.0]'
p4680
(lp4681
S'26'
p4682
aS'5.0'
p4683
asS'[72.0, 216.0]'
p4684
(lp4685
S'22'
p4686
aS'9.0'
p4687
asS'[51.0, 73.0, 185.0]'
p4688
(lp4689
S'29'
p4690
aS'2.0'
p4691
asS'[50.0, 53.0]'
p4692
(lp4693
S'26'
p4694
aS'5.0'
p4695
asS'[71.0, 73.0, 225.0]'
p4696
(lp4697
S'29'
p4698
aS'2.0'
p4699
asS'[7.0, 121.0]'
p4700
(lp4701
S'28'
p4702
aS'3.0'
p4703
asS'[71.0, 75.0, 186.0]'
p4704
(lp4705
S'29'
p4706
aS'2.0'
p4707
asS'[217.0, 264.0]'
p4708
(lp4709
S'26'
p4710
aS'5.0'
p4711
asS'[247.0, 271.0]'
p4712
(lp4713
S'29'
p4714
aS'2.0'
p4715
asS'[25.0, 136.0]'
p4716
(lp4717
S'28'
p4718
aS'3.0'
p4719
asS'[281.0, 305.0]'
p4720
(lp4721
g347
aS'25.0'
p4722
asS'[13.0, 118.0]'
p4723
(lp4724
S'22'
p4725
aS'9.0'
p4726
asS'[61.0, 71.0, 75.0]'
p4727
(lp4728
S'29'
p4729
aS'2.0'
p4730
asS'[178.0, 272.0, 305.0]'
p4731
(lp4732
S'26'
p4733
aS'5.0'
p4734
asS'[51.0, 55.0, 109.0]'
p4735
(lp4736
S'29'
p4737
aS'2.0'
p4738
asS'[203.0]'
p4739
(lp4740
S'26'
p4741
aS'5.0'
p4742
asS'[72.0, 230.0]'
p4743
(lp4744
S'29'
p4745
aS'2.0'
p4746
asS'[263.0, 305.0]'
p4747
(lp4748
S'13'
p4749
aS'18.0'
p4750
asS'[219.0, 269.0]'
p4751
(lp4752
S'29'
p4753
aS'2.0'
p4754
asS'[72.0, 76.0, 215.0, 219.0]'
p4755
(lp4756
S'28'
p4757
aS'3.0'
p4758
asS'[73.0, 149.0]'
p4759
(lp4760
S'27'
p4761
aS'4.0'
p4762
asS'[39.0, 77.0]'
p4763
(lp4764
S'29'
p4765
aS'2.0'
p4766
asS'[67.0, 109.0, 111.0]'
p4767
(lp4768
S'29'
p4769
aS'2.0'
p4770
asS'[179.0, 222.0]'
p4771
(lp4772
S'29'
p4773
aS'2.0'
p4774
asS'[247.0, 305.0]'
p4775
(lp4776
g538
aS'29.0'
p4777
asS'[96.0, 103.0]'
p4778
(lp4779
S'22'
p4780
aS'9.0'
p4781
asS'[36.0, 102.0]'
p4782
(lp4783
S'27'
p4784
aS'4.0'
p4785
asS'[71.0, 195.0]'
p4786
(lp4787
S'29'
p4788
aS'2.0'
p4789
asS'[152.0, 276.0]'
p4790
(lp4791
S'22'
p4792
aS'9.0'
p4793
asS'[11.0]'
p4794
(lp4795
S'22'
p4796
aS'9.0'
p4797
asS'[72.0, 217.0, 242.0]'
p4798
(lp4799
S'29'
p4800
aS'2.0'
p4801
asS'[89.0, 102.0]'
p4802
(lp4803
S'21'
p4804
aS'10.0'
p4805
asS'[13.0]'
p4806
(lp4807
S'22'
p4808
aS'9.0'
p4809
asS'[261.0, 305.0]'
p4810
(lp4811
S'13'
p4812
aS'18.0'
p4813
asS'[97.0, 99.0]'
p4814
(lp4815
S'29'
p4816
aS'2.0'
p4817
asS'[167.0, 169.0]'
p4818
(lp4819
S'29'
p4820
aS'2.0'
p4821
asS'[180.0, 198.0]'
p4822
(lp4823
S'29'
p4824
aS'2.0'
p4825
asS'[47.0, 85.0]'
p4826
(lp4827
S'29'
p4828
aS'2.0'
p4829
asS'[82.0, 217.0, 218.0]'
p4830
(lp4831
S'29'
p4832
aS'2.0'
p4833
asS'[73.0, 193.0, 217.0]'
p4834
(lp4835
S'28'
p4836
aS'3.0'
p4837
asS'[78.0, 81.0, 120.0]'
p4838
(lp4839
S'29'
p4840
aS'2.0'
p4841
asS'[76.0, 82.0, 218.0]'
p4842
(lp4843
S'27'
p4844
aS'4.0'
p4845
asS'[77.0, 115.0]'
p4846
(lp4847
S'29'
p4848
aS'2.0'
p4849
asS'[72.0, 128.0]'
p4850
(lp4851
S'28'
p4852
aS'3.0'
p4853
asS'[71.0, 181.0, 198.0, 217.0]'
p4854
(lp4855
S'28'
p4856
aS'3.0'
p4857
asS'[150.0]'
p4858
(lp4859
S'19'
p4860
aS'12.0'
p4861
asS'[241.0, 246.0, 305.0]'
p4862
(lp4863
S'27'
p4864
aS'4.0'
p4865
asS'[126.0]'
p4866
(lp4867
S'24'
p4868
aS'7.0'
p4869
asS'[259.0]'
p4870
(lp4871
S'13'
p4872
aS'18.0'
p4873
asS'[72.0, 74.0, 227.0]'
p4874
(lp4875
S'29'
p4876
aS'2.0'
p4877
asS'[20.0, 24.0, 118.0]'
p4878
(lp4879
S'29'
p4880
aS'2.0'
p4881
asS'[155.0, 216.0]'
p4882
(lp4883
S'29'
p4884
aS'2.0'
p4885
asS'[71.0, 181.0, 217.0]'
p4886
(lp4887
S'23'
p4888
aS'8.0'
p4889
asS'[72.0, 217.0, 240.0]'
p4890
(lp4891
S'29'
p4892
aS'2.0'
p4893
asS'[218.0, 219.0, 277.0, 305.0]'
p4894
(lp4895
S'27'
p4896
aS'4.0'
p4897
asS'[219.0, 277.0]'
p4898
(lp4899
S'27'
p4900
aS'4.0'
p4901
asS'[89.0, 100.0]'
p4902
(lp4903
S'26'
p4904
aS'5.0'
p4905
asS'[47.0, 72.0, 82.0]'
p4906
(lp4907
S'29'
p4908
aS'2.0'
p4909
asS'[90.0, 108.0]'
p4910
(lp4911
S'27'
p4912
aS'4.0'
p4913
asS'[72.0, 73.0, 192.0, 217.0]'
p4914
(lp4915
S'29'
p4916
aS'2.0'
p4917
asS'[147.0, 177.0, 220.0]'
p4918
(lp4919
S'29'
p4920
aS'2.0'
p4921
asS'[217.0, 244.0]'
p4922
(lp4923
S'27'
p4924
aS'4.0'
p4925
asS'[71.0, 192.0]'
p4926
(lp4927
S'29'
p4928
aS'2.0'
p4929
asS'[74.0, 192.0, 217.0]'
p4930
(lp4931
S'27'
p4932
aS'4.0'
p4933
asS'[234.0, 305.0]'
p4934
(lp4935
g538
aS'29.0'
p4936
asS'[71.0, 72.0, 155.0, 216.0]'
p4937
(lp4938
S'29'
p4939
aS'2.0'
p4940
asS'[74.0, 193.0, 217.0]'
p4941
(lp4942
S'25'
p4943
aS'6.0'
p4944
asS'[182.0, 216.0]'
p4945
(lp4946
g1925
aS'28.0'
p4947
asS'[51.0, 54.0]'
p4948
(lp4949
S'29'
p4950
aS'2.0'
p4951
asS'[252.0]'
p4952
(lp4953
g446
aS'31.0'
p4954
asS'[250.0]'
p4955
(lp4956
S'17'
p4957
aS'14.0'
p4958
asS'[29.0, 40.0]'
p4959
(lp4960
S'29'
p4961
aS'2.0'
p4962
asS'[246.0, 255.0, 305.0]'
p4963
(lp4964
S'23'
p4965
aS'8.0'
p4966
asS'[1.0, 72.0, 92.0]'
p4967
(lp4968
S'29'
p4969
aS'2.0'
p4970
asS'[72.0, 82.0, 216.0]'
p4971
(lp4972
S'29'
p4973
aS'2.0'
p4974
asS'[152.0, 305.0]'
p4975
(lp4976
S'11'
p4977
aS'22.0'
p4978
asS'[95.0, 141.0]'
p4979
(lp4980
S'28'
p4981
aS'3.0'
p4982
asS'[80.0, 82.0]'
p4983
(lp4984
S'29'
p4985
aS'2.0'
p4986
asS'[71.0, 72.0, 73.0, 74.0, 155.0]'
p4987
(lp4988
S'29'
p4989
aS'2.0'
p4990
asS'[231.0, 279.0, 305.0]'
p4991
(lp4992
S'29'
p4993
aS'2.0'
p4994
asS'[152.0]'
p4995
(lp4996
S'11'
p4997
aS'22.0'
p4998
asS'[116.0, 179.0, 306.0]'
p4999
(lp5000
S'27'
p5001
aS'4.0'
p5002
asS'[215.0, 218.0, 219.0]'
p5003
(lp5004
S'28'
p5005
aS'3.0'
p5006
asS'[27.0, 305.0]'
p5007
(lp5008
S'17'
p5009
aS'14.0'
p5010
asS'[13.0, 43.0]'
p5011
(lp5012
S'29'
p5013
aS'2.0'
p5014
asS'[166.0]'
p5015
(lp5016
S'22'
p5017
aS'9.0'
p5018
asS'[41.0, 102.0]'
p5019
(lp5020
S'29'
p5021
aS'2.0'
p5022
asS'[52.0, 62.0, 74.0]'
p5023
(lp5024
S'28'
p5025
aS'3.0'
p5026
asS'[46.0, 70.0]'
p5027
(lp5028
S'28'
p5029
aS'3.0'
p5030
asS'[68.0, 110.0, 221.0]'
p5031
(lp5032
S'27'
p5033
aS'4.0'
p5034
asS'[167.0, 276.0, 305.0]'
p5035
(lp5036
S'29'
p5037
aS'2.0'
p5038
asS'[8.0, 122.0]'
p5039
(lp5040
S'27'
p5041
aS'4.0'
p5042
asS'[72.0, 155.0, 216.0]'
p5043
(lp5044
S'29'
p5045
aS'2.0'
p5046
asS'[73.0, 192.0, 306.0]'
p5047
(lp5048
S'28'
p5049
aS'3.0'
p5050
asS'[217.0, 242.0]'
p5051
(lp5052
S'28'
p5053
aS'3.0'
p5054
asS'[77.0, 216.0, 226.0]'
p5055
(lp5056
S'29'
p5057
aS'2.0'
p5058
asS'[72.0, 236.0]'
p5059
(lp5060
S'19'
p5061
aS'12.0'
p5062
asS'[1.0, 90.0, 92.0]'
p5063
(lp5064
S'29'
p5065
aS'2.0'
p5066
asS'[169.0, 252.0]'
p5067
(lp5068
S'28'
p5069
aS'3.0'
p5070
asS'[39.0]'
p5071
(lp5072
S'28'
p5073
aS'3.0'
p5074
asS'[72.0, 74.0, 217.0]'
p5075
(lp5076
S'29'
p5077
aS'2.0'
p5078
asS'[72.0, 187.0, 195.0]'
p5079
(lp5080
S'29'
p5081
aS'2.0'
p5082
asS'[51.0, 71.0, 185.0]'
p5083
(lp5084
S'29'
p5085
aS'2.0'
p5086
asS'[96.0, 139.0]'
p5087
(lp5088
S'29'
p5089
aS'2.0'
p5090
asS'[239.0, 305.0]'
p5091
(lp5092
g538
aS'29.0'
p5093
asS'[165.0, 166.0, 168.0]'
p5094
(lp5095
S'29'
p5096
aS'2.0'
p5097
asS'[74.0, 193.0, 216.0]'
p5098
(lp5099
S'26'
p5100
aS'5.0'
p5101
asS'[52.0]'
p5102
(lp5103
S'17'
p5104
aS'14.0'
p5105
asS'[71.0, 74.0, 217.0]'
p5106
(lp5107
S'25'
p5108
aS'6.0'
p5109
asS'[181.0, 198.0, 217.0]'
p5110
(lp5111
S'28'
p5112
aS'3.0'
p5113
asS'[45.0, 55.0]'
p5114
(lp5115
S'29'
p5116
aS'2.0'
p5117
asS'[57.0, 83.0, 113.0]'
p5118
(lp5119
S'28'
p5120
aS'3.0'
p5121
asS'[71.0, 72.0, 208.0, 216.0]'
p5122
(lp5123
S'28'
p5124
aS'3.0'
p5125
asS'[32.0]'
p5126
(lp5127
S'22'
p5128
aS'9.0'
p5129
asS'[223.0]'
p5130
(lp5131
S'28'
p5132
aS'3.0'
p5133
asS'[3.0, 17.0]'
p5134
(lp5135
S'29'
p5136
aS'2.0'
p5137
asS'[279.0, 305.0]'
p5138
(lp5139
g347
aS'25.0'
p5140
asS'[151.0, 153.0, 305.0]'
p5141
(lp5142
S'27'
p5143
aS'4.0'
p5144
asS'[77.0, 82.0, 217.0]'
p5145
(lp5146
S'28'
p5147
aS'3.0'
p5148
asS'[99.0, 143.0]'
p5149
(lp5150
S'29'
p5151
aS'2.0'
p5152
asS'[71.0, 74.0, 81.0, 217.0]'
p5153
(lp5154
S'29'
p5155
aS'2.0'
p5156
asS'[73.0, 185.0]'
p5157
(lp5158
S'26'
p5159
aS'5.0'
p5160
asS'[256.0]'
p5161
(lp5162
S'21'
p5163
aS'10.0'
p5164
asS'[71.0, 186.0, 195.0]'
p5165
(lp5166
S'29'
p5167
aS'2.0'
p5168
asS'[51.0, 96.0, 128.0]'
p5169
(lp5170
S'29'
p5171
aS'2.0'
p5172
asS'[77.0, 155.0, 216.0]'
p5173
(lp5174
S'29'
p5175
aS'2.0'
p5176
asS'[248.0, 258.0]'
p5177
(lp5178
S'23'
p5179
aS'8.0'
p5180
asS'[3.0, 94.0]'
p5181
(lp5182
S'27'
p5183
aS'4.0'
p5184
asS'[73.0, 74.0, 155.0]'
p5185
(lp5186
S'29'
p5187
aS'2.0'
p5188
asS'[217.0, 240.0]'
p5189
(lp5190
S'26'
p5191
aS'5.0'
p5192
asS'[72.0, 215.0, 219.0]'
p5193
(lp5194
S'28'
p5195
aS'3.0'
p5196
asS'[36.0, 78.0]'
p5197
(lp5198
S'29'
p5199
aS'2.0'
p5200
asS'[73.0, 76.0]'
p5201
(lp5202
S'28'
p5203
aS'3.0'
p5204
asS'[216.0, 264.0]'
p5205
(lp5206
S'26'
p5207
aS'5.0'
p5208
asS'[72.0, 78.0, 251.0]'
p5209
(lp5210
S'29'
p5211
aS'2.0'
p5212
asS'[198.0, 210.0]'
p5213
(lp5214
S'24'
p5215
aS'7.0'
p5216
asS'[35.0, 140.0]'
p5217
(lp5218
S'29'
p5219
aS'2.0'
p5220
asS'[48.0, 216.0]'
p5221
(lp5222
S'29'
p5223
aS'2.0'
p5224
asS'[128.0, 138.0]'
p5225
(lp5226
S'27'
p5227
aS'4.0'
p5228
asS'[194.0]'
p5229
(lp5230
S'28'
p5231
aS'3.0'
p5232
asS'[48.0]'
p5233
(lp5234
S'20'
p5235
aS'11.0'
p5236
asS'[177.0, 269.0]'
p5237
(lp5238
S'29'
p5239
aS'2.0'
p5240
asS'[95.0, 100.0, 305.0]'
p5241
(lp5242
S'28'
p5243
aS'3.0'
p5244
asS'[195.0, 244.0, 305.0]'
p5245
(lp5246
S'27'
p5247
aS'4.0'
p5248
asS'[234.0, 276.0]'
p5249
(lp5250
S'25'
p5251
aS'6.0'
p5252
asS'[74.0, 192.0]'
p5253
(lp5254
S'25'
p5255
aS'6.0'
p5256
asS'[71.0, 72.0, 73.0]'
p5257
(lp5258
S'29'
p5259
aS'2.0'
p5260
asS'[71.0, 74.0, 75.0]'
p5261
(lp5262
S'28'
p5263
aS'3.0'
p5264
asS'[241.0, 279.0, 305.0]'
p5265
(lp5266
S'11'
p5267
aS'22.0'
p5268
asS'[41.0, 94.0]'
p5269
(lp5270
S'29'
p5271
aS'2.0'
p5272
asS'[156.0, 192.0]'
p5273
(lp5274
S'28'
p5275
aS'3.0'
p5276
asS'[71.0, 72.0, 184.0]'
p5277
(lp5278
S'29'
p5279
aS'2.0'
p5280
asS'[217.0, 266.0]'
p5281
(lp5282
S'29'
p5283
aS'2.0'
p5284
asS'[74.0, 217.0, 218.0]'
p5285
(lp5286
S'29'
p5287
aS'2.0'
p5288
asS'[72.0, 76.0, 150.0]'
p5289
(lp5290
S'28'
p5291
aS'3.0'
p5292
asS'[147.0, 148.0]'
p5293
(lp5294
S'27'
p5295
aS'4.0'
p5296
asS'[6.0, 12.0]'
p5297
(lp5298
S'24'
p5299
aS'7.0'
p5300
asS'[13.0, 99.0, 143.0]'
p5301
(lp5302
S'29'
p5303
aS'2.0'
p5304
asS'[230.0, 278.0]'
p5305
(lp5306
S'29'
p5307
aS'2.0'
p5308
asS'[195.0, 203.0]'
p5309
(lp5310
S'29'
p5311
aS'2.0'
p5312
asS'[254.0]'
p5313
(lp5314
S'21'
p5315
aS'10.0'
p5316
asS'[95.0, 140.0]'
p5317
(lp5318
S'26'
p5319
aS'5.0'
p5320
asS'[71.0, 75.0, 81.0]'
p5321
(lp5322
S'29'
p5323
aS'2.0'
p5324
asS'[10.0, 16.0, 24.0]'
p5325
(lp5326
S'26'
p5327
aS'5.0'
p5328
asS'[96.0, 116.0]'
p5329
(lp5330
S'28'
p5331
aS'3.0'
p5332
asS'[89.0, 122.0]'
p5333
(lp5334
S'25'
p5335
aS'6.0'
p5336
asS'[168.0, 305.0]'
p5337
(lp5338
S'23'
p5339
aS'8.0'
p5340
asS'[10.0, 122.0]'
p5341
(lp5342
S'20'
p5343
aS'11.0'
p5344
asS'[72.0, 234.0]'
p5345
(lp5346
S'27'
p5347
aS'4.0'
p5348
asS'[72.0, 78.0, 150.0]'
p5349
(lp5350
S'27'
p5351
aS'4.0'
p5352
asS'[37.0, 102.0]'
p5353
(lp5354
S'29'
p5355
aS'2.0'
p5356
asS'[72.0, 82.0, 218.0, 219.0]'
p5357
(lp5358
S'29'
p5359
aS'2.0'
p5360
asS'[67.0, 109.0, 220.0]'
p5361
(lp5362
S'28'
p5363
aS'3.0'
p5364
asS'[198.0, 209.0]'
p5365
(lp5366
S'26'
p5367
aS'5.0'
p5368
asS'[74.0, 75.0, 81.0, 216.0]'
p5369
(lp5370
S'28'
p5371
aS'3.0'
p5372
asS'[72.0, 186.0]'
p5373
(lp5374
S'22'
p5375
aS'9.0'
p5376
asS'[110.0, 157.0]'
p5377
(lp5378
S'29'
p5379
aS'2.0'
p5380
asS'[102.0, 161.0, 305.0]'
p5381
(lp5382
S'28'
p5383
aS'3.0'
p5384
asS'[73.0, 216.0]'
p5385
(lp5386
S'27'
p5387
aS'4.0'
p5388
asS'[72.0, 73.0, 82.0, 216.0]'
p5389
(lp5390
S'29'
p5391
aS'2.0'
p5392
asS'[48.0, 76.0, 82.0, 216.0]'
p5393
(lp5394
S'29'
p5395
aS'2.0'
p5396
asS'[174.0, 217.0]'
p5397
(lp5398
S'29'
p5399
aS'2.0'
p5400
asS'[71.0, 75.0, 216.0]'
p5401
(lp5402
S'28'
p5403
aS'3.0'
p5404
asS'[78.0, 234.0]'
p5405
(lp5406
S'25'
p5407
aS'6.0'
p5408
asS'[75.0, 76.0, 186.0]'
p5409
(lp5410
S'29'
p5411
aS'2.0'
p5412
asS'[43.0, 73.0, 82.0]'
p5413
(lp5414
S'29'
p5415
aS'2.0'
p5416
asS'[72.0, 192.0]'
p5417
(lp5418
S'29'
p5419
aS'2.0'
p5420
asS'[155.0, 306.0]'
p5421
(lp5422
S'28'
p5423
aS'3.0'
p5424
asS'[72.0, 184.0]'
p5425
(lp5426
S'28'
p5427
aS'3.0'
p5428
asS'[75.0, 203.0]'
p5429
(lp5430
S'27'
p5431
aS'4.0'
p5432
asS'[72.0, 73.0, 193.0, 217.0]'
p5433
(lp5434
S'29'
p5435
aS'2.0'
p5436
asS'[77.0, 240.0]'
p5437
(lp5438
S'29'
p5439
aS'2.0'
p5440
asS'[102.0, 121.0, 305.0]'
p5441
(lp5442
S'24'
p5443
aS'7.0'
p5444
asS'[16.0, 28.0, 32.0]'
p5445
(lp5446
S'29'
p5447
aS'2.0'
p5448
asS'[149.0, 187.0]'
p5449
(lp5450
S'29'
p5451
aS'2.0'
p5452
asS'[239.0, 248.0, 305.0]'
p5453
(lp5454
S'29'
p5455
aS'2.0'
p5456
asS'[17.0]'
p5457
(lp5458
S'12'
p5459
aS'19.0'
p5460
asS'[87.0, 110.0]'
p5461
(lp5462
S'27'
p5463
aS'4.0'
p5464
asS'[71.0, 72.0, 186.0]'
p5465
(lp5466
S'28'
p5467
aS'3.0'
p5468
asS'[148.0, 305.0]'
p5469
(lp5470
S'29'
p5471
aS'2.0'
p5472
asS'[143.0, 173.0]'
p5473
(lp5474
S'27'
p5475
aS'4.0'
p5476
asS'[189.0, 244.0, 305.0]'
p5477
(lp5478
S'27'
p5479
aS'4.0'
p5480
asS'[43.0, 89.0, 119.0]'
p5481
(lp5482
S'26'
p5483
aS'5.0'
p5484
asS'[19.0, 40.0]'
p5485
(lp5486
S'25'
p5487
aS'6.0'
p5488
asS'[198.0, 217.0, 240.0]'
p5489
(lp5490
S'28'
p5491
aS'3.0'
p5492
asS'[157.0, 193.0]'
p5493
(lp5494
S'27'
p5495
aS'4.0'
p5496
asS'[73.0, 149.0, 306.0]'
p5497
(lp5498
S'29'
p5499
aS'2.0'
p5500
asS'[178.0]'
p5501
(lp5502
S'9'
p5503
aS'24.0'
p5504
asS'[71.0, 226.0]'
p5505
(lp5506
S'28'
p5507
aS'3.0'
p5508
asS'[186.0, 275.0, 305.0]'
p5509
(lp5510
S'23'
p5511
aS'8.0'
p5512
asS'[217.0, 241.0]'
p5513
(lp5514
S'24'
p5515
aS'7.0'
p5516
asS'[165.0, 305.0]'
p5517
(lp5518
S'21'
p5519
aS'10.0'
p5520
asS'[74.0, 218.0, 306.0]'
p5521
(lp5522
S'29'
p5523
aS'2.0'
p5524
asS'[71.0, 74.0, 77.0]'
p5525
(lp5526
S'28'
p5527
aS'3.0'
p5528
asS'[71.0, 77.0, 155.0, 216.0]'
p5529
(lp5530
S'29'
p5531
aS'2.0'
p5532
asS'[72.0, 74.0, 192.0, 217.0]'
p5533
(lp5534
S'29'
p5535
aS'2.0'
p5536
asS'[73.0, 96.0]'
p5537
(lp5538
S'29'
p5539
aS'2.0'
p5540
asS'[77.0, 163.0]'
p5541
(lp5542
S'14'
p5543
aS'17.0'
p5544
asS'[47.0, 61.0, 109.0]'
p5545
(lp5546
S'29'
p5547
aS'2.0'
p5548
asS'[45.0, 55.0, 119.0]'
p5549
(lp5550
S'29'
p5551
aS'2.0'
p5552
asS'[209.0, 216.0]'
p5553
(lp5554
S'29'
p5555
aS'2.0'
p5556
asS'[270.0, 279.0, 305.0]'
p5557
(lp5558
S'28'
p5559
aS'3.0'
p5560
asS'[37.0]'
p5561
(lp5562
S'26'
p5563
aS'5.0'
p5564
asS'[71.0, 72.0, 192.0, 217.0]'
p5565
(lp5566
S'29'
p5567
aS'2.0'
p5568
asS'[95.0, 177.0]'
p5569
(lp5570
S'29'
p5571
aS'2.0'
p5572
asS'[76.0, 216.0]'
p5573
(lp5574
S'25'
p5575
aS'6.0'
p5576
asS'[180.0, 212.0]'
p5577
(lp5578
S'26'
p5579
aS'5.0'
p5580
asS'[198.0, 217.0, 244.0]'
p5581
(lp5582
S'29'
p5583
aS'2.0'
p5584
asS'[90.0, 92.0, 114.0]'
p5585
(lp5586
S'29'
p5587
aS'2.0'
p5588
asS'[75.0, 162.0]'
p5589
(lp5590
S'28'
p5591
aS'3.0'
p5592
asS'[169.0, 234.0, 305.0]'
p5593
(lp5594
S'23'
p5595
aS'8.0'
p5596
asS'[7.0, 78.0]'
p5597
(lp5598
S'29'
p5599
aS'2.0'
p5600
asS'[198.0, 212.0]'
p5601
(lp5602
S'26'
p5603
aS'5.0'
p5604
asS'[76.0, 82.0, 219.0]'
p5605
(lp5606
S'27'
p5607
aS'4.0'
p5608
asS'[91.0, 118.0]'
p5609
(lp5610
S'26'
p5611
aS'5.0'
p5612
asS'[276.0]'
p5613
(lp5614
g347
aS'25.0'
p5615
asS'[34.0]'
p5616
(lp5617
S'24'
p5618
aS'7.0'
p5619
asS'[47.0, 61.0]'
p5620
(lp5621
S'29'
p5622
aS'2.0'
p5623
asS'[75.0, 150.0]'
p5624
(lp5625
S'28'
p5626
aS'3.0'
p5627
asS'[178.0, 219.0]'
p5628
(lp5629
S'29'
p5630
aS'2.0'
p5631
asS'[217.0, 262.0]'
p5632
(lp5633
S'27'
p5634
aS'4.0'
p5635
asS'[78.0, 146.0]'
p5636
(lp5637
S'26'
p5638
aS'5.0'
p5639
asS'[274.0]'
p5640
(lp5641
S'10'
p5642
aS'23.0'
p5643
asS'[209.0]'
p5644
(lp5645
S'26'
p5646
aS'5.0'
p5647
asS'[71.0, 72.0, 197.0]'
p5648
(lp5649
S'29'
p5650
aS'2.0'
p5651
asS'[58.0, 109.0]'
p5652
(lp5653
S'29'
p5654
aS'2.0'
p5655
asS'[45.0, 89.0]'
p5656
(lp5657
S'19'
p5658
aS'12.0'
p5659
asS'[71.0, 154.0]'
p5660
(lp5661
S'18'
p5662
aS'13.0'
p5663
asS'[236.0, 305.0]'
p5664
(lp5665
g538
aS'29.0'
p5666
asS'[71.0, 72.0, 250.0]'
p5667
(lp5668
S'28'
p5669
aS'3.0'
p5670
asS'[123.0, 199.0]'
p5671
(lp5672
S'29'
p5673
aS'2.0'
p5674
asS'[71.0, 72.0, 73.0, 154.0]'
p5675
(lp5676
S'29'
p5677
aS'2.0'
p5678
asS'[71.0, 72.0, 195.0]'
p5679
(lp5680
S'29'
p5681
aS'2.0'
p5682
asS'[72.0, 195.0, 216.0]'
p5683
(lp5684
S'29'
p5685
aS'2.0'
p5686
asS'[72.0, 180.0]'
p5687
(lp5688
S'29'
p5689
aS'2.0'
p5690
asS'[247.0, 264.0, 305.0]'
p5691
(lp5692
S'16'
p5693
aS'15.0'
p5694
asS'[71.0, 72.0, 253.0]'
p5695
(lp5696
S'28'
p5697
aS'3.0'
p5698
asS'[69.0]'
p5699
(lp5700
S'24'
p5701
aS'7.0'
p5702
asS'[73.0, 82.0, 216.0]'
p5703
(lp5704
S'29'
p5705
aS'2.0'
p5706
asS'[109.0]'
p5707
(lp5708
S'20'
p5709
aS'11.0'
p5710
asS'[35.0]'
p5711
(lp5712
S'26'
p5713
aS'5.0'
p5714
asS'[73.0, 74.0, 185.0]'
p5715
(lp5716
S'29'
p5717
aS'2.0'
p5718
asS'[49.0, 58.0, 113.0]'
p5719
(lp5720
S'28'
p5721
aS'3.0'
p5722
asS'[74.0, 216.0]'
p5723
(lp5724
S'15'
p5725
aS'16.0'
p5726
asS'[72.0, 73.0, 145.0]'
p5727
(lp5728
S'28'
p5729
aS'3.0'
p5730
asS'[5.0, 11.0, 23.0]'
p5731
(lp5732
S'28'
p5733
aS'3.0'
p5734
asS'[239.0]'
p5735
(lp5736
g538
aS'29.0'
p5737
asS'[117.0, 199.0]'
p5738
(lp5739
S'29'
p5740
aS'2.0'
p5741
asS'[72.0, 78.0, 240.0]'
p5742
(lp5743
S'29'
p5744
aS'2.0'
p5745
asS'[152.0, 245.0, 305.0]'
p5746
(lp5747
S'27'
p5748
aS'4.0'
p5749
asS'[76.0, 215.0]'
p5750
(lp5751
S'10'
p5752
aS'23.0'
p5753
asS'[57.0, 64.0, 88.0]'
p5754
(lp5755
S'29'
p5756
aS'2.0'
p5757
asS'[71.0, 72.0, 73.0, 225.0]'
p5758
(lp5759
S'29'
p5760
aS'2.0'
p5761
asS'[99.0]'
p5762
(lp5763
S'20'
p5764
aS'11.0'
p5765
asS'[274.0, 305.0]'
p5766
(lp5767
S'23'
p5768
aS'8.0'
p5769
asS'[258.0, 282.0, 305.0]'
p5770
(lp5771
S'29'
p5772
aS'2.0'
p5773
asS'[172.0, 173.0]'
p5774
(lp5775
S'28'
p5776
aS'3.0'
p5777
asS'[195.0, 217.0, 244.0]'
p5778
(lp5779
S'28'
p5780
aS'3.0'
p5781
asS'[72.0, 76.0, 204.0]'
p5782
(lp5783
S'28'
p5784
aS'3.0'
p5785
asS'[229.0, 305.0]'
p5786
(lp5787
S'16'
p5788
aS'15.0'
p5789
asS'[34.0, 41.0]'
p5790
(lp5791
S'29'
p5792
aS'2.0'
p5793
asS'[72.0, 182.0]'
p5794
(lp5795
S'7'
p5796
aS'27.0'
p5797
asS'[156.0]'
p5798
(lp5799
S'21'
p5800
aS'10.0'
p5801
asS'[72.0, 239.0]'
p5802
(lp5803
S'24'
p5804
aS'7.0'
p5805
asS'[78.0, 164.0]'
p5806
(lp5807
S'14'
p5808
aS'17.0'
p5809
asS'[77.0, 234.0]'
p5810
(lp5811
S'25'
p5812
aS'6.0'
p5813
asS'[36.0]'
p5814
(lp5815
S'27'
p5816
aS'4.0'
p5817
asS'[43.0, 158.0]'
p5818
(lp5819
S'29'
p5820
aS'2.0'
p5821
asS'[71.0, 229.0]'
p5822
(lp5823
S'27'
p5824
aS'4.0'
p5825
asS'[128.0]'
p5826
(lp5827
S'26'
p5828
aS'5.0'
p5829
asS'[244.0, 282.0]'
p5830
(lp5831
S'22'
p5832
aS'9.0'
p5833
asS'[18.0, 27.0]'
p5834
(lp5835
S'29'
p5836
aS'2.0'
p5837
asS'[78.0, 81.0, 218.0]'
p5838
(lp5839
S'28'
p5840
aS'3.0'
p5841
asS'[195.0]'
p5842
(lp5843
S'17'
p5844
aS'14.0'
p5845
asS'[77.0, 165.0]'
p5846
(lp5847
S'25'
p5848
aS'6.0'
p5849
asS'[23.0]'
p5850
(lp5851
S'20'
p5852
aS'11.0'
p5853
asS'[276.0, 305.0]'
p5854
(lp5855
g347
aS'25.0'
p5856
asS'[71.0, 72.0, 73.0, 74.0, 217.0]'
p5857
(lp5858
S'29'
p5859
aS'2.0'
p5860
asS'[75.0, 178.0, 237.0]'
p5861
(lp5862
S'29'
p5863
aS'2.0'
p5864
asS'[36.0, 121.0]'
p5865
(lp5866
S'29'
p5867
aS'2.0'
p5868
asS'[71.0, 144.0]'
p5869
(lp5870
S'26'
p5871
aS'5.0'
p5872
asS'[71.0, 72.0, 74.0, 154.0]'
p5873
(lp5874
S'29'
p5875
aS'2.0'
p5876
asS'[61.0, 75.0, 178.0]'
p5877
(lp5878
S'29'
p5879
aS'2.0'
p5880
asS'[7.0, 100.0, 305.0]'
p5881
(lp5882
S'28'
p5883
aS'3.0'
p5884
asS'[254.0, 277.0]'
p5885
(lp5886
S'28'
p5887
aS'3.0'
p5888
asS'[52.0, 74.0]'
p5889
(lp5890
S'28'
p5891
aS'3.0'
p5892
asS'[16.0, 90.0, 118.0]'
p5893
(lp5894
S'29'
p5895
aS'2.0'
p5896
asS'[236.0, 246.0]'
p5897
(lp5898
S'29'
p5899
aS'2.0'
p5900
asS'[116.0, 123.0]'
p5901
(lp5902
S'27'
p5903
aS'4.0'
p5904
asS'[18.0, 144.0]'
p5905
(lp5906
S'29'
p5907
aS'2.0'
p5908
asS'[48.0, 75.0, 76.0]'
p5909
(lp5910
S'29'
p5911
aS'2.0'
p5912
asS'[157.0]'
p5913
(lp5914
S'15'
p5915
aS'16.0'
p5916
asS'[77.0, 82.0, 216.0]'
p5917
(lp5918
S'29'
p5919
aS'2.0'
p5920
asS'[89.0, 107.0]'
p5921
(lp5922
S'28'
p5923
aS'3.0'
p5924
asS'[56.0, 138.0]'
p5925
(lp5926
S'28'
p5927
aS'3.0'
p5928
asS'[17.0, 108.0, 121.0]'
p5929
(lp5930
S'29'
p5931
aS'2.0'
p5932
asS'[199.0, 306.0]'
p5933
(lp5934
S'26'
p5935
aS'5.0'
p5936
asS'[73.0, 172.0]'
p5937
(lp5938
S'25'
p5939
aS'6.0'
p5940
asS'[75.0, 154.0]'
p5941
(lp5942
S'25'
p5943
aS'6.0'
p5944
asS'[246.0, 263.0]'
p5945
(lp5946
S'16'
p5947
aS'15.0'
p5948
asS'[159.0, 200.0]'
p5949
(lp5950
S'26'
p5951
aS'5.0'
p5952
asS'[26.0, 305.0]'
p5953
(lp5954
S'20'
p5955
aS'11.0'
p5956
asS'[6.0, 12.0, 24.0]'
p5957
(lp5958
S'24'
p5959
aS'7.0'
p5960
asS'[238.0, 281.0, 305.0]'
p5961
(lp5962
S'10'
p5963
aS'23.0'
p5964
asS'[72.0, 73.0, 76.0, 155.0, 216.0]'
p5965
(lp5966
S'29'
p5967
aS'2.0'
p5968
asS'[77.0, 120.0, 216.0]'
p5969
(lp5970
S'29'
p5971
aS'2.0'
p5972
asS'[73.0, 74.0, 193.0]'
p5973
(lp5974
S'29'
p5975
aS'2.0'
p5976
asS'[173.0]'
p5977
(lp5978
S'26'
p5979
aS'5.0'
p5980
asS'[77.0, 155.0]'
p5981
(lp5982
S'28'
p5983
aS'3.0'
p5984
asS'[258.0, 281.0]'
p5985
(lp5986
S'28'
p5987
aS'3.0'
p5988
asS'[24.0, 44.0]'
p5989
(lp5990
S'28'
p5991
aS'3.0'
p5992
asS'[55.0, 119.0, 158.0]'
p5993
(lp5994
S'29'
p5995
aS'2.0'
p5996
asS'[221.0]'
p5997
(lp5998
S'18'
p5999
aS'13.0'
p6000
asS'[155.0]'
p6001
(lp6002
S'21'
p6003
aS'10.0'
p6004
asS'[75.0, 81.0, 177.0]'
p6005
(lp6006
S'29'
p6007
aS'2.0'
p6008
asS'[138.0]'
p6009
(lp6010
S'26'
p6011
aS'5.0'
p6012
asS'[282.0, 305.0]'
p6013
(lp6014
g347
aS'25.0'
p6015
asS'[242.0]'
p6016
(lp6017
S'11'
p6018
aS'22.0'
p6019
asS'[61.0, 75.0]'
p6020
(lp6021
S'29'
p6022
aS'2.0'
p6023
asS'[74.0, 79.0, 148.0]'
p6024
(lp6025
S'29'
p6026
aS'2.0'
p6027
asS'[153.0, 165.0]'
p6028
(lp6029
S'23'
p6030
aS'8.0'
p6031
asS'[72.0, 74.0, 193.0]'
p6032
(lp6033
S'29'
p6034
aS'2.0'
p6035
asS'[96.0, 142.0]'
p6036
(lp6037
S'27'
p6038
aS'4.0'
p6039
asS'[74.0, 79.0, 193.0]'
p6040
(lp6041
S'29'
p6042
aS'2.0'
p6043
asS'[71.0, 72.0, 73.0, 74.0, 225.0]'
p6044
(lp6045
S'29'
p6046
aS'2.0'
p6047
asS'[90.0, 98.0]'
p6048
(lp6049
S'29'
p6050
aS'2.0'
p6051
asS'[159.0]'
p6052
(lp6053
S'25'
p6054
aS'6.0'
p6055
asS'[71.0, 93.0]'
p6056
(lp6057
S'26'
p6058
aS'5.0'
p6059
asS'[72.0, 73.0, 74.0, 155.0]'
p6060
(lp6061
S'29'
p6062
aS'2.0'
p6063
asS'[115.0, 183.0]'
p6064
(lp6065
S'20'
p6066
aS'11.0'
p6067
asS'[151.0, 305.0]'
p6068
(lp6069
S'11'
p6070
aS'22.0'
p6071
asS'[73.0, 74.0, 216.0]'
p6072
(lp6073
S'29'
p6074
aS'2.0'
p6075
asS'[47.0, 51.0, 109.0]'
p6076
(lp6077
S'26'
p6078
aS'5.0'
p6079
asS'[73.0, 172.0, 216.0]'
p6080
(lp6081
S'27'
p6082
aS'4.0'
p6083
asS'[217.0, 219.0]'
p6084
(lp6085
S'29'
p6086
aS'2.0'
p6087
asS'[256.0, 279.0]'
p6088
(lp6089
S'28'
p6090
aS'3.0'
p6091
asS'[72.0, 76.0, 154.0]'
p6092
(lp6093
S'17'
p6094
aS'14.0'
p6095
asS'[71.0, 143.0, 144.0]'
p6096
(lp6097
S'29'
p6098
aS'2.0'
p6099
asS'[264.0]'
p6100
(lp6101
S'13'
p6102
aS'18.0'
p6103
asS'[240.0]'
p6104
(lp6105
S'11'
p6106
aS'22.0'
p6107
asS'[72.0, 253.0]'
p6108
(lp6109
S'27'
p6110
aS'4.0'
p6111
asS'[172.0, 174.0, 217.0]'
p6112
(lp6113
S'29'
p6114
aS'2.0'
p6115
asS'[79.0, 80.0, 119.0]'
p6116
(lp6117
S'29'
p6118
aS'2.0'
p6119
asS'[227.0, 276.0, 305.0]'
p6120
(lp6121
S'29'
p6122
aS'2.0'
p6123
asS'[94.0, 139.0]'
p6124
(lp6125
S'29'
p6126
aS'2.0'
p6127
asS'[72.0, 251.0]'
p6128
(lp6129
S'28'
p6130
aS'3.0'
p6131
asS'[243.0, 248.0]'
p6132
(lp6133
S'27'
p6134
aS'4.0'
p6135
asS'[62.0, 75.0]'
p6136
(lp6137
S'26'
p6138
aS'5.0'
p6139
asS'[97.0, 132.0]'
p6140
(lp6141
S'28'
p6142
aS'3.0'
p6143
asS'[232.0, 280.0, 305.0]'
p6144
(lp6145
S'29'
p6146
aS'2.0'
p6147
asS'[147.0, 178.0, 305.0]'
p6148
(lp6149
S'29'
p6150
aS'2.0'
p6151
asS'[72.0, 76.0, 82.0, 216.0]'
p6152
(lp6153
S'29'
p6154
aS'2.0'
p6155
asS'[153.0, 167.0]'
p6156
(lp6157
S'12'
p6158
aS'19.0'
p6159
asS'[72.0, 73.0, 78.0]'
p6160
(lp6161
S'28'
p6162
aS'3.0'
p6163
asS'[254.0, 305.0]'
p6164
(lp6165
S'21'
p6166
aS'10.0'
p6167
asS'[219.0, 224.0]'
p6168
(lp6169
S'28'
p6170
aS'3.0'
p6171
asS'[2.0, 77.0, 91.0]'
p6172
(lp6173
S'29'
p6174
aS'2.0'
p6175
asS'[76.0, 219.0]'
p6176
(lp6177
S'25'
p6178
aS'6.0'
p6179
asS'[174.0, 218.0]'
p6180
(lp6181
S'28'
p6182
aS'3.0'
p6183
asS'[90.0, 107.0]'
p6184
(lp6185
S'24'
p6186
aS'7.0'
p6187
asS'[75.0, 163.0]'
p6188
(lp6189
S'25'
p6190
aS'6.0'
p6191
asS'[71.0, 73.0, 74.0, 228.0]'
p6192
(lp6193
S'29'
p6194
aS'2.0'
p6195
asS'[108.0]'
p6196
(lp6197
S'23'
p6198
aS'8.0'
p6199
asS'[43.0, 69.0, 89.0]'
p6200
(lp6201
S'25'
p6202
aS'6.0'
p6203
asS'[71.0, 74.0, 154.0]'
p6204
(lp6205
S'26'
p6206
aS'5.0'
p6207
asS'[147.0, 177.0, 305.0]'
p6208
(lp6209
S'29'
p6210
aS'2.0'
p6211
asS'[149.0, 306.0]'
p6212
(lp6213
S'29'
p6214
aS'2.0'
p6215
asS'[89.0, 91.0, 118.0]'
p6216
(lp6217
S'28'
p6218
aS'3.0'
p6219
asS'[102.0]'
p6220
(lp6221
S'21'
p6222
aS'10.0'
p6223
asS'[170.0, 173.0, 216.0]'
p6224
(lp6225
S'29'
p6226
aS'2.0'
p6227
asS'[72.0, 193.0, 217.0]'
p6228
(lp6229
S'29'
p6230
aS'2.0'
p6231
asS'[187.0, 189.0, 199.0]'
p6232
(lp6233
S'29'
p6234
aS'2.0'
p6235
asS'[30.0]'
p6236
(lp6237
S'25'
p6238
aS'6.0'
p6239
asS'[77.0, 216.0]'
p6240
(lp6241
S'29'
p6242
aS'2.0'
p6243
asS'[173.0, 219.0]'
p6244
(lp6245
S'29'
p6246
aS'2.0'
p6247
asS'[78.0, 161.0]'
p6248
(lp6249
S'28'
p6250
aS'3.0'
p6251
asS'[244.0, 305.0]'
p6252
(lp6253
S'11'
p6254
aS'22.0'
p6255
asS'[71.0, 74.0, 81.0]'
p6256
(lp6257
S'29'
p6258
aS'2.0'
p6259
asS'[52.0, 74.0, 141.0]'
p6260
(lp6261
S'29'
p6262
aS'2.0'
p6263
asS'[74.0, 77.0, 155.0]'
p6264
(lp6265
S'29'
p6266
aS'2.0'
p6267
asS'[8.0, 99.0]'
p6268
(lp6269
S'27'
p6270
aS'4.0'
p6271
asS'[197.0]'
p6272
(lp6273
S'23'
p6274
aS'8.0'
p6275
asS'[57.0, 113.0]'
p6276
(lp6277
S'19'
p6278
aS'12.0'
p6279
asS'[72.0, 76.0]'
p6280
(lp6281
g710
aS'70.0'
p6282
asS'[151.0, 153.0]'
p6283
(lp6284
S'27'
p6285
aS'4.0'
p6286
asS'[138.0, 213.0]'
p6287
(lp6288
S'28'
p6289
aS'3.0'
p6290
asS'[218.0, 219.0, 276.0]'
p6291
(lp6292
S'29'
p6293
aS'2.0'
p6294
asS'[124.0, 199.0, 305.0]'
p6295
(lp6296
S'27'
p6297
aS'4.0'
p6298
asS'[216.0, 265.0]'
p6299
(lp6300
S'28'
p6301
aS'3.0'
p6302
asS'[74.0, 96.0, 157.0]'
p6303
(lp6304
S'27'
p6305
aS'4.0'
p6306
asS'[103.0, 140.0]'
p6307
(lp6308
S'25'
p6309
aS'6.0'
p6310
asS'[9.0, 21.0, 23.0]'
p6311
(lp6312
S'29'
p6313
aS'2.0'
p6314
asS'[46.0, 56.0, 119.0]'
p6315
(lp6316
S'28'
p6317
aS'3.0'
p6318
asS'[199.0, 305.0]'
p6319
(lp6320
S'26'
p6321
aS'5.0'
p6322
asS'[55.0, 109.0]'
p6323
(lp6324
S'29'
p6325
aS'2.0'
p6326
asS'[106.0]'
p6327
(lp6328
S'28'
p6329
aS'3.0'
p6330
asS'[104.0]'
p6331
(lp6332
S'20'
p6333
aS'11.0'
p6334
asS'[71.0, 150.0]'
p6335
(lp6336
S'27'
p6337
aS'4.0'
p6338
asS'[38.0, 101.0, 122.0]'
p6339
(lp6340
S'28'
p6341
aS'3.0'
p6342
asS'[89.0, 91.0, 108.0]'
p6343
(lp6344
S'29'
p6345
aS'2.0'
p6346
asS'[71.0, 72.0, 254.0]'
p6347
(lp6348
S'28'
p6349
aS'3.0'
p6350
asS'[74.0, 111.0]'
p6351
(lp6352
S'29'
p6353
aS'2.0'
p6354
asS'[48.0, 76.0, 216.0]'
p6355
(lp6356
S'29'
p6357
aS'2.0'
p6358
asS'[244.0]'
p6359
(lp6360
S'11'
p6361
aS'22.0'
p6362
asS'[264.0, 305.0]'
p6363
(lp6364
S'13'
p6365
aS'18.0'
p6366
asS'[21.0, 105.0]'
p6367
(lp6368
S'28'
p6369
aS'3.0'
p6370
asS'[81.0, 216.0]'
p6371
(lp6372
S'28'
p6373
aS'3.0'
p6374
asS'[246.0, 262.0, 305.0]'
p6375
(lp6376
S'16'
p6377
aS'15.0'
p6378
asS'[50.0]'
p6379
(lp6380
S'20'
p6381
aS'11.0'
p6382
asS'[77.0, 160.0]'
p6383
(lp6384
S'29'
p6385
aS'2.0'
p6386
asS'[71.0, 74.0, 75.0, 217.0]'
p6387
(lp6388
S'28'
p6389
aS'3.0'
p6390
asS'[16.0, 28.0]'
p6391
(lp6392
S'28'
p6393
aS'3.0'
p6394
asS'[195.0, 216.0]'
p6395
(lp6396
S'29'
p6397
aS'2.0'
p6398
asS'[71.0, 72.0, 73.0, 74.0, 228.0]'
p6399
(lp6400
S'29'
p6401
aS'2.0'
p6402
asS'[216.0, 262.0]'
p6403
(lp6404
S'27'
p6405
aS'4.0'
p6406
asS'[57.0, 87.0, 88.0]'
p6407
(lp6408
S'29'
p6409
aS'2.0'
p6410
asS'[71.0, 77.0, 217.0, 226.0]'
p6411
(lp6412
S'29'
p6413
aS'2.0'
p6414
asS'[51.0, 71.0]'
p6415
(lp6416
S'29'
p6417
aS'2.0'
p6418
asS'[67.0, 220.0]'
p6419
(lp6420
S'27'
p6421
aS'4.0'
p6422
asS'[48.0, 62.0, 72.0, 74.0]'
p6423
(lp6424
S'29'
p6425
aS'2.0'
p6426
asS'[8.0]'
p6427
(lp6428
S'19'
p6429
aS'12.0'
p6430
asS'[71.0, 192.0, 200.0]'
p6431
(lp6432
S'29'
p6433
aS'2.0'
p6434
asS'[72.0, 143.0, 173.0]'
p6435
(lp6436
S'29'
p6437
aS'2.0'
p6438
asS'[36.0, 139.0]'
p6439
(lp6440
S'27'
p6441
aS'4.0'
p6442
asS'[72.0, 73.0, 76.0, 82.0]'
p6443
(lp6444
S'29'
p6445
aS'2.0'
p6446
asS'[186.0, 274.0, 305.0]'
p6447
(lp6448
S'29'
p6449
aS'2.0'
p6450
asS'[72.0, 74.0]'
p6451
(lp6452
S'29'
p6453
aS'2.0'
p6454
asS'[71.0, 72.0, 251.0]'
p6455
(lp6456
S'28'
p6457
aS'3.0'
p6458
asS'[267.0]'
p6459
(lp6460
S'13'
p6461
aS'18.0'
p6462
asS'[246.0]'
p6463
(lp6464
g538
aS'29.0'
p6465
asS'[185.0, 198.0]'
p6466
(lp6467
S'28'
p6468
aS'3.0'
p6469
asS'[57.0, 64.0]'
p6470
(lp6471
S'29'
p6472
aS'2.0'
p6473
asS'[77.0, 198.0, 217.0, 240.0]'
p6474
(lp6475
S'29'
p6476
aS'2.0'
p6477
asS'[23.0, 31.0]'
p6478
(lp6479
S'28'
p6480
aS'3.0'
p6481
asS'[4.0, 94.0]'
p6482
(lp6483
S'27'
p6484
aS'4.0'
p6485
asS'[71.0, 143.0]'
p6486
(lp6487
S'29'
p6488
aS'2.0'
p6489
asS'[93.0, 96.0, 139.0]'
p6490
(lp6491
S'29'
p6492
aS'2.0'
p6493
asS'[96.0, 99.0, 305.0]'
p6494
(lp6495
S'29'
p6496
aS'2.0'
p6497
asS'[74.0, 81.0, 222.0]'
p6498
(lp6499
S'29'
p6500
aS'2.0'
p6501
asS'[51.0, 71.0, 73.0, 96.0]'
p6502
(lp6503
S'29'
p6504
aS'2.0'
p6505
asS'[77.0, 91.0]'
p6506
(lp6507
S'29'
p6508
aS'2.0'
p6509
asS'[72.0, 73.0, 192.0]'
p6510
(lp6511
S'29'
p6512
aS'2.0'
p6513
asS'[182.0, 198.0]'
p6514
(lp6515
S'28'
p6516
aS'3.0'
p6517
asS'[73.0, 193.0]'
p6518
(lp6519
S'28'
p6520
aS'3.0'
p6521
asS'[72.0, 249.0]'
p6522
(lp6523
S'21'
p6524
aS'10.0'
p6525
asS'[243.0, 248.0, 305.0]'
p6526
(lp6527
S'27'
p6528
aS'4.0'
p6529
asS'[115.0, 199.0]'
p6530
(lp6531
S'24'
p6532
aS'7.0'
p6533
asS'[55.0, 95.0]'
p6534
(lp6535
S'28'
p6536
aS'3.0'
p6537
asS'[49.0, 83.0, 113.0]'
p6538
(lp6539
S'28'
p6540
aS'3.0'
p6541
asS'[71.0, 149.0, 187.0]'
p6542
(lp6543
S'29'
p6544
aS'2.0'
p6545
asS'[193.0, 217.0]'
p6546
(lp6547
S'24'
p6548
aS'7.0'
p6549
asS'[96.0, 139.0, 305.0]'
p6550
(lp6551
S'29'
p6552
aS'2.0'
p6553
asS'[72.0, 217.0, 226.0]'
p6554
(lp6555
S'29'
p6556
aS'2.0'
p6557
asS'[73.0, 74.0, 192.0]'
p6558
(lp6559
S'29'
p6560
aS'2.0'
p6561
asS'[218.0, 219.0, 277.0]'
p6562
(lp6563
S'27'
p6564
aS'4.0'
p6565
asS'[171.0]'
p6566
(lp6567
S'29'
p6568
aS'2.0'
p6569
asS'[248.0, 266.0]'
p6570
(lp6571
S'16'
p6572
aS'15.0'
p6573
asS'[28.0, 32.0, 305.0]'
p6574
(lp6575
S'29'
p6576
aS'2.0'
p6577
asS'[4.0, 22.0]'
p6578
(lp6579
S'28'
p6580
aS'3.0'
p6581
asS'[236.0, 246.0, 305.0]'
p6582
(lp6583
S'29'
p6584
aS'2.0'
p6585
asS'[51.0, 54.0, 109.0]'
p6586
(lp6587
S'29'
p6588
aS'2.0'
p6589
asS'[72.0, 73.0, 216.0]'
p6590
(lp6591
S'27'
p6592
aS'4.0'
p6593
asS'[71.0, 72.0, 73.0, 217.0]'
p6594
(lp6595
S'29'
p6596
aS'2.0'
p6597
asS'[205.0]'
p6598
(lp6599
S'25'
p6600
aS'6.0'
p6601
asS'[75.0, 76.0, 162.0]'
p6602
(lp6603
S'29'
p6604
aS'2.0'
p6605
asS'[51.0, 55.0]'
p6606
(lp6607
S'27'
p6608
aS'4.0'
p6609
asS'[48.0, 74.0, 75.0]'
p6610
(lp6611
S'29'
p6612
aS'2.0'
p6613
asS'[71.0, 73.0, 74.0, 155.0, 216.0]'
p6614
(lp6615
S'29'
p6616
aS'2.0'
p6617
asS'[52.0, 58.0, 88.0]'
p6618
(lp6619
S'29'
p6620
aS'2.0'
p6621
asS'[157.0, 178.0]'
p6622
(lp6623
S'28'
p6624
aS'3.0'
p6625
asS'[71.0, 254.0]'
p6626
(lp6627
S'25'
p6628
aS'6.0'
p6629
asS'[75.0, 225.0]'
p6630
(lp6631
S'29'
p6632
aS'2.0'
p6633
asS'[206.0, 220.0]'
p6634
(lp6635
S'29'
p6636
aS'2.0'
p6637
asS'[195.0, 305.0]'
p6638
(lp6639
S'17'
p6640
aS'14.0'
p6641
asS'[48.0, 62.0, 75.0]'
p6642
(lp6643
S'28'
p6644
aS'3.0'
p6645
asS'[76.0, 186.0]'
p6646
(lp6647
S'29'
p6648
aS'2.0'
p6649
asS'[306.0]'
p6650
(lp6651
S'25'
p6652
aS'6.0'
p6653
asS'[75.0, 76.0, 155.0]'
p6654
(lp6655
S'29'
p6656
aS'2.0'
p6657
asS'[74.0, 81.0, 217.0, 218.0]'
p6658
(lp6659
S'29'
p6660
aS'2.0'
p6661
asS'[51.0, 57.0]'
p6662
(lp6663
S'24'
p6664
aS'7.0'
p6665
asS'[72.0, 73.0, 74.0, 217.0]'
p6666
(lp6667
S'29'
p6668
aS'2.0'
p6669
asS'[72.0, 193.0, 216.0]'
p6670
(lp6671
S'29'
p6672
aS'2.0'
p6673
asS'[62.0, 110.0, 157.0]'
p6674
(lp6675
S'29'
p6676
aS'2.0'
p6677
asS'[138.0, 198.0]'
p6678
(lp6679
S'29'
p6680
aS'2.0'
p6681
asS'[76.0, 235.0]'
p6682
(lp6683
S'25'
p6684
aS'6.0'
p6685
asS'[77.0, 217.0, 240.0]'
p6686
(lp6687
S'29'
p6688
aS'2.0'
p6689
asS'[177.0]'
p6690
(lp6691
g347
aS'25.0'
p6692
asS'[71.0, 72.0, 188.0]'
p6693
(lp6694
S'28'
p6695
aS'3.0'
p6696
asS'[232.0, 305.0]'
p6697
(lp6698
S'16'
p6699
aS'15.0'
p6700
asS'[74.0, 75.0, 217.0]'
p6701
(lp6702
S'28'
p6703
aS'3.0'
p6704
asS'[45.0, 55.0, 137.0]'
p6705
(lp6706
S'29'
p6707
aS'2.0'
p6708
asS'[5.0, 23.0]'
p6709
(lp6710
S'28'
p6711
aS'3.0'
p6712
asS'[62.0, 177.0]'
p6713
(lp6714
S'29'
p6715
aS'2.0'
p6716
asS'[116.0, 199.0]'
p6717
(lp6718
S'24'
p6719
aS'7.0'
p6720
asS'[244.0, 275.0, 305.0]'
p6721
(lp6722
S'24'
p6723
aS'7.0'
p6724
asS'[71.0, 74.0, 96.0]'
p6725
(lp6726
S'29'
p6727
aS'2.0'
p6728
asS'[97.0]'
p6729
(lp6730
S'27'
p6731
aS'4.0'
p6732
asS'[219.0, 276.0]'
p6733
(lp6734
S'29'
p6735
aS'2.0'
p6736
asS'[11.0, 19.0, 23.0]'
p6737
(lp6738
S'29'
p6739
aS'2.0'
p6740
asS'[71.0, 72.0, 252.0]'
p6741
(lp6742
S'28'
p6743
aS'3.0'
p6744
asS'[260.0]'
p6745
(lp6746
S'13'
p6747
aS'18.0'
p6748
asS'[71.0, 72.0, 208.0]'
p6749
(lp6750
S'28'
p6751
aS'3.0'
p6752
asS'[236.0, 278.0, 305.0]'
p6753
(lp6754
S'25'
p6755
aS'6.0'
p6756
asS'[136.0, 201.0]'
p6757
(lp6758
S'29'
p6759
aS'2.0'
p6760
asS'[49.0, 58.0]'
p6761
(lp6762
S'28'
p6763
aS'3.0'
p6764
asS'[247.0, 256.0, 305.0]'
p6765
(lp6766
S'23'
p6767
aS'8.0'
p6768
asS'[52.0, 139.0]'
p6769
(lp6770
S'28'
p6771
aS'3.0'
p6772
asS'[76.0, 82.0, 218.0, 219.0]'
p6773
(lp6774
S'27'
p6775
aS'4.0'
p6776
asS'[165.0, 166.0, 305.0]'
p6777
(lp6778
S'28'
p6779
aS'3.0'
p6780
asS'[262.0]'
p6781
(lp6782
S'13'
p6783
aS'18.0'
p6784
asS'[22.0, 106.0]'
p6785
(lp6786
S'28'
p6787
aS'3.0'
p6788
asS'[71.0, 77.0, 198.0, 217.0, 240.0]'
p6789
(lp6790
S'29'
p6791
aS'2.0'
p6792
asS'[48.0, 72.0]'
p6793
(lp6794
S'29'
p6795
aS'2.0'
p6796
asS'[76.0, 237.0]'
p6797
(lp6798
S'28'
p6799
aS'3.0'
p6800
asS'[144.0]'
p6801
(lp6802
S'24'
p6803
aS'7.0'
p6804
asS'[96.0, 140.0]'
p6805
(lp6806
S'28'
p6807
aS'3.0'
p6808
asS'[55.0, 78.0, 158.0]'
p6809
(lp6810
S'29'
p6811
aS'2.0'
p6812
asS'[173.0, 177.0]'
p6813
(lp6814
S'27'
p6815
aS'4.0'
p6816
asS'[153.0, 305.0]'
p6817
(lp6818
g538
aS'29.0'
p6819
asS'[73.0, 82.0]'
p6820
(lp6821
S'27'
p6822
aS'4.0'
p6823
asS'[266.0, 305.0]'
p6824
(lp6825
S'13'
p6826
aS'18.0'
p6827
asS'[72.0, 73.0, 74.0, 192.0]'
p6828
(lp6829
S'29'
p6830
aS'2.0'
p6831
asS'[73.0, 74.0, 192.0, 306.0]'
p6832
(lp6833
S'29'
p6834
aS'2.0'
p6835
asS'[25.0, 305.0]'
p6836
(lp6837
S'21'
p6838
aS'10.0'
p6839
asS'[71.0, 73.0, 74.0, 155.0]'
p6840
(lp6841
S'29'
p6842
aS'2.0'
p6843
asS'[20.0, 118.0]'
p6844
(lp6845
S'28'
p6846
aS'3.0'
p6847
asS'[150.0, 305.0]'
p6848
(lp6849
S'21'
p6850
aS'10.0'
p6851
asS'[117.0, 193.0, 199.0]'
p6852
(lp6853
S'29'
p6854
aS'2.0'
p6855
asS'[115.0, 159.0, 199.0]'
p6856
(lp6857
S'28'
p6858
aS'3.0'
p6859
asS'[265.0]'
p6860
(lp6861
S'13'
p6862
aS'18.0'
p6863
asS'[72.0, 219.0]'
p6864
(lp6865
S'25'
p6866
aS'6.0'
p6867
asS'[5.0, 40.0, 101.0]'
p6868
(lp6869
S'28'
p6870
aS'3.0'
p6871
asS'[73.0, 76.0, 154.0]'
p6872
(lp6873
S'28'
p6874
aS'3.0'
p6875
asS'[71.0, 77.0, 252.0]'
p6876
(lp6877
S'27'
p6878
aS'4.0'
p6879
asS'[37.0, 108.0]'
p6880
(lp6881
S'27'
p6882
aS'4.0'
p6883
asS'[57.0, 87.0]'
p6884
(lp6885
S'27'
p6886
aS'4.0'
p6887
asS'[240.0, 277.0, 305.0]'
p6888
(lp6889
S'22'
p6890
aS'9.0'
p6891
asS'[71.0, 145.0]'
p6892
(lp6893
S'26'
p6894
aS'5.0'
p6895
asS'[73.0, 82.0, 222.0]'
p6896
(lp6897
S'29'
p6898
aS'2.0'
p6899
asS'[71.0, 77.0, 198.0, 216.0, 240.0]'
p6900
(lp6901
S'29'
p6902
aS'2.0'
p6903
asS'[38.0, 77.0]'
p6904
(lp6905
S'25'
p6906
aS'6.0'
p6907
asS'[72.0, 155.0]'
p6908
(lp6909
S'27'
p6910
aS'4.0'
p6911
asS'[52.0, 60.0, 110.0]'
p6912
(lp6913
S'29'
p6914
aS'2.0'
p6915
asS'[51.0, 61.0, 71.0, 73.0]'
p6916
(lp6917
S'29'
p6918
aS'2.0'
p6919
asS'[187.0, 275.0]'
p6920
(lp6921
S'10'
p6922
aS'23.0'
p6923
asS'[218.0, 269.0, 277.0]'
p6924
(lp6925
S'29'
p6926
aS'2.0'
p6927
asS'[73.0, 145.0]'
p6928
(lp6929
S'27'
p6930
aS'4.0'
p6931
asS'[74.0, 218.0, 219.0]'
p6932
(lp6933
S'28'
p6934
aS'3.0'
p6935
asS'[58.0, 113.0]'
p6936
(lp6937
S'27'
p6938
aS'4.0'
p6939
asS'[75.0, 186.0]'
p6940
(lp6941
S'29'
p6942
aS'2.0'
p6943
asS'[71.0, 73.0, 74.0, 154.0]'
p6944
(lp6945
S'29'
p6946
aS'2.0'
p6947
asS'[39.0, 78.0]'
p6948
(lp6949
S'29'
p6950
aS'2.0'
p6951
asS'[71.0, 72.0, 73.0, 74.0, 230.0]'
p6952
(lp6953
S'29'
p6954
aS'2.0'
p6955
asS'[71.0, 75.0, 203.0]'
p6956
(lp6957
S'27'
p6958
aS'4.0'
p6959
asS'[95.0, 305.0]'
p6960
(lp6961
S'27'
p6962
aS'4.0'
p6963
asS'[5.0, 101.0]'
p6964
(lp6965
S'25'
p6966
aS'6.0'
p6967
asS'[71.0, 73.0]'
p6968
(lp6969
S'29'
p6970
aS'2.0'
p6971
asS'[71.0, 72.0, 74.0, 155.0]'
p6972
(lp6973
S'29'
p6974
aS'2.0'
p6975
asS'[75.0, 177.0]'
p6976
(lp6977
S'28'
p6978
aS'3.0'
p6979
asS'[71.0, 72.0, 200.0]'
p6980
(lp6981
S'28'
p6982
aS'3.0'
p6983
asS'[95.0, 127.0]'
p6984
(lp6985
S'28'
p6986
aS'3.0'
p6987
asS'[39.0, 303.0]'
p6988
(lp6989
S'28'
p6990
aS'3.0'
p6991
asS'[48.0, 82.0, 216.0]'
p6992
(lp6993
S'29'
p6994
aS'2.0'
p6995
asS'[28.0]'
p6996
(lp6997
S'26'
p6998
aS'5.0'
p6999
asS'[189.0, 305.0]'
p7000
(lp7001
g538
aS'29.0'
p7002
asS'[101.0, 122.0]'
p7003
(lp7004
S'21'
p7005
aS'10.0'
p7006
asS'[100.0]'
p7007
(lp7008
S'24'
p7009
aS'7.0'
p7010
asS'[55.0, 137.0, 198.0]'
p7011
(lp7012
S'28'
p7013
aS'3.0'
p7014
asS'[28.0, 31.0, 305.0]'
p7015
(lp7016
S'29'
p7017
aS'2.0'
p7018
asS'[56.0, 90.0]'
p7019
(lp7020
S'24'
p7021
aS'7.0'
p7022
asS'[71.0, 74.0, 75.0, 225.0]'
p7023
(lp7024
S'29'
p7025
aS'2.0'
p7026
asS'[77.0, 198.0, 216.0, 240.0]'
p7027
(lp7028
S'29'
p7029
aS'2.0'
p7030
asS'[77.0, 226.0]'
p7031
(lp7032
S'29'
p7033
aS'2.0'
p7034
asS'[216.0, 242.0]'
p7035
(lp7036
S'28'
p7037
aS'3.0'
p7038
asS'[71.0, 72.0, 217.0, 226.0]'
p7039
(lp7040
S'29'
p7041
aS'2.0'
p7042
asS'[70.0, 90.0]'
p7043
(lp7044
S'21'
p7045
aS'10.0'
p7046
asS'[17.0, 91.0, 108.0]'
p7047
(lp7048
S'29'
p7049
aS'2.0'
p7050
asS'[77.0, 216.0, 240.0]'
p7051
(lp7052
S'29'
p7053
aS'2.0'
p7054
asS'[152.0, 276.0, 305.0]'
p7055
(lp7056
S'22'
p7057
aS'9.0'
p7058
asS'[71.0, 72.0, 195.0, 207.0]'
p7059
(lp7060
S'29'
p7061
aS'2.0'
p7062
asS'[18.0, 102.0]'
p7063
(lp7064
S'28'
p7065
aS'3.0'
p7066
asS'[89.0, 108.0, 121.0]'
p7067
(lp7068
S'29'
p7069
aS'2.0'
p7070
asS'[18.0, 41.0, 77.0]'
p7071
(lp7072
S'26'
p7073
aS'5.0'
p7074
asS'[72.0, 73.0, 230.0]'
p7075
(lp7076
S'29'
p7077
aS'2.0'
p7078
asS'[247.0, 265.0]'
p7079
(lp7080
S'16'
p7081
aS'15.0'
p7082
asS'[198.0, 260.0]'
p7083
(lp7084
S'29'
p7085
aS'2.0'
p7086
asS'[6.0, 102.0, 305.0]'
p7087
(lp7088
S'23'
p7089
aS'8.0'
p7090
asS'[75.0, 76.0, 255.0]'
p7091
(lp7092
S'29'
p7093
aS'2.0'
p7094
asS'[195.0, 217.0]'
p7095
(lp7096
S'28'
p7097
aS'3.0'
p7098
asS'[52.0, 58.0]'
p7099
(lp7100
S'24'
p7101
aS'7.0'
p7102
asS'[43.0, 69.0]'
p7103
(lp7104
S'24'
p7105
aS'7.0'
p7106
asS'[166.0, 305.0]'
p7107
(lp7108
S'26'
p7109
aS'5.0'
p7110
asS'[183.0, 198.0, 216.0]'
p7111
(lp7112
S'29'
p7113
aS'2.0'
p7114
asS'[109.0, 111.0]'
p7115
(lp7116
S'26'
p7117
aS'5.0'
p7118
asS'[256.0, 280.0]'
p7119
(lp7120
S'29'
p7121
aS'2.0'
p7122
asS'[57.0, 83.0]'
p7123
(lp7124
S'27'
p7125
aS'4.0'
p7126
asS'[93.0]'
p7127
(lp7128
S'25'
p7129
aS'6.0'
p7130
asS'[90.0, 108.0, 121.0]'
p7131
(lp7132
S'29'
p7133
aS'2.0'
p7134
asS'[100.0, 160.0]'
p7135
(lp7136
S'28'
p7137
aS'3.0'
p7138
asS'[6.0, 18.0, 41.0, 102.0]'
p7139
(lp7140
S'29'
p7141
aS'2.0'
p7142
asS'[74.0, 86.0]'
p7143
(lp7144
S'29'
p7145
aS'2.0'
p7146
asS'[216.0, 240.0]'
p7147
(lp7148
S'26'
p7149
aS'5.0'
p7150
asS'[20.0, 134.0]'
p7151
(lp7152
S'29'
p7153
aS'2.0'
p7154
asS'[134.0]'
p7155
(lp7156
S'29'
p7157
aS'2.0'
p7158
asS'[21.0, 23.0, 118.0]'
p7159
(lp7160
S'29'
p7161
aS'2.0'
p7162
asS'[48.0, 72.0, 216.0]'
p7163
(lp7164
S'29'
p7165
aS'2.0'
p7166
asS'[74.0, 75.0, 81.0]'
p7167
(lp7168
S'28'
p7169
aS'3.0'
p7170
asS'[95.0, 156.0, 177.0]'
p7171
(lp7172
S'29'
p7173
aS'2.0'
p7174
asS'[48.0, 72.0, 76.0, 216.0]'
p7175
(lp7176
S'29'
p7177
aS'2.0'
p7178
asS'[269.0]'
p7179
(lp7180
S'21'
p7181
aS'10.0'
p7182
asS'[249.0, 305.0]'
p7183
(lp7184
S'21'
p7185
aS'10.0'
p7186
asS'[72.0, 78.0, 219.0]'
p7187
(lp7188
S'28'
p7189
aS'3.0'
p7190
asS'[72.0, 74.0, 217.0, 219.0]'
p7191
(lp7192
S'29'
p7193
aS'2.0'
p7194
asS'[81.0, 174.0, 218.0]'
p7195
(lp7196
S'29'
p7197
aS'2.0'
p7198
asS'[9.0]'
p7199
(lp7200
S'20'
p7201
aS'11.0'
p7202
asS'[52.0, 200.0]'
p7203
(lp7204
S'28'
p7205
aS'3.0'
p7206
asS'[13.0, 28.0]'
p7207
(lp7208
S'29'
p7209
aS'2.0'
p7210
asS'[71.0, 144.0, 155.0]'
p7211
(lp7212
S'29'
p7213
aS'2.0'
p7214
asS'[9.0, 121.0]'
p7215
(lp7216
S'20'
p7217
aS'11.0'
p7218
asS'[75.0]'
p7219
(lp7220
g710
aS'70.0'
p7221
asS'[76.0, 82.0]'
p7222
(lp7223
S'27'
p7224
aS'4.0'
p7225
asS'[116.0]'
p7226
(lp7227
S'11'
p7228
aS'22.0'
p7229
asS'[62.0, 90.0]'
p7230
(lp7231
S'29'
p7232
aS'2.0'
p7233
asS'[67.0, 111.0]'
p7234
(lp7235
S'29'
p7236
aS'2.0'
p7237
asS'[46.0, 56.0, 86.0, 119.0]'
p7238
(lp7239
S'29'
p7240
aS'2.0'
p7241
asS'[24.0, 32.0]'
p7242
(lp7243
S'27'
p7244
aS'4.0'
p7245
asS'[123.0, 305.0]'
p7246
(lp7247
S'26'
p7248
aS'5.0'
p7249
asS'[57.0, 114.0]'
p7250
(lp7251
S'25'
p7252
aS'6.0'
p7253
asS'[71.0, 198.0, 240.0]'
p7254
(lp7255
S'28'
p7256
aS'3.0'
p7257
asS'[78.0, 198.0]'
p7258
(lp7259
S'25'
p7260
aS'6.0'
p7261
asS'[71.0, 77.0, 198.0]'
p7262
(lp7263
S'28'
p7264
aS'3.0'
p7265
asS'[240.0, 278.0, 305.0]'
p7266
(lp7267
S'11'
p7268
aS'22.0'
p7269
asS'[47.0, 82.0]'
p7270
(lp7271
S'29'
p7272
aS'2.0'
p7273
asS'[51.0, 57.0, 109.0]'
p7274
(lp7275
S'27'
p7276
aS'4.0'
p7277
asS'[61.0, 75.0, 76.0]'
p7278
(lp7279
S'29'
p7280
aS'2.0'
p7281
asS'[14.0]'
p7282
(lp7283
S'24'
p7284
aS'7.0'
p7285
asS'[200.0, 272.0]'
p7286
(lp7287
S'29'
p7288
aS'2.0'
p7289
asS'[112.0, 161.0]'
p7290
(lp7291
S'29'
p7292
aS'2.0'
p7293
asS'[254.0, 278.0]'
p7294
(lp7295
S'29'
p7296
aS'2.0'
p7297
asS'[87.0, 89.0]'
p7298
(lp7299
S'29'
p7300
aS'2.0'
p7301
asS'[136.0, 198.0]'
p7302
(lp7303
S'29'
p7304
aS'2.0'
p7305
asS'[40.0]'
p7306
(lp7307
S'25'
p7308
aS'6.0'
p7309
asS'[77.0]'
p7310
(lp7311
g3655
aS'44.0'
p7312
asS'[60.0, 110.0, 112.0]'
p7313
(lp7314
S'29'
p7315
aS'2.0'
p7316
asS'[49.0, 113.0]'
p7317
(lp7318
S'24'
p7319
aS'7.0'
p7320
asS'[269.0, 305.0]'
p7321
(lp7322
S'21'
p7323
aS'10.0'
p7324
asS'[228.0, 277.0, 305.0]'
p7325
(lp7326
S'16'
p7327
aS'15.0'
p7328
asS'[71.0, 195.0, 216.0]'
p7329
(lp7330
S'29'
p7331
aS'2.0'
p7332
asS'[71.0, 77.0, 234.0]'
p7333
(lp7334
S'27'
p7335
aS'4.0'
p7336
asS'[70.0, 90.0, 92.0]'
p7337
(lp7338
S'29'
p7339
aS'2.0'
p7340
asS'[24.0, 30.0]'
p7341
(lp7342
S'28'
p7343
aS'3.0'
p7344
asS'[74.0, 77.0, 217.0]'
p7345
(lp7346
S'28'
p7347
aS'3.0'
p7348
asS'[104.0, 139.0]'
p7349
(lp7350
S'25'
p7351
aS'6.0'
p7352
asS'[46.0]'
p7353
(lp7354
S'19'
p7355
aS'12.0'
p7356
asS'[51.0, 199.0]'
p7357
(lp7358
S'29'
p7359
aS'2.0'
p7360
asS'[71.0, 73.0, 217.0]'
p7361
(lp7362
S'29'
p7363
aS'2.0'
p7364
asS'[74.0, 81.0, 217.0, 218.0, 219.0]'
p7365
(lp7366
S'29'
p7367
aS'2.0'
p7368
asS'[110.0]'
p7369
(lp7370
S'19'
p7371
aS'12.0'
p7372
asS'[55.0, 85.0, 177.0]'
p7373
(lp7374
S'29'
p7375
aS'2.0'
p7376
asS'[71.0, 96.0]'
p7377
(lp7378
S'29'
p7379
aS'2.0'
p7380
asS'[100.0, 144.0]'
p7381
(lp7382
S'29'
p7383
aS'2.0'
p7384
asS'[11.0, 23.0, 29.0]'
p7385
(lp7386
S'28'
p7387
aS'3.0'
p7388
asS'[169.0, 227.0]'
p7389
(lp7390
S'29'
p7391
aS'2.0'
p7392
asS'[153.0, 251.0]'
p7393
(lp7394
S'23'
p7395
aS'8.0'
p7396
asS'[2.0, 71.0, 145.0]'
p7397
(lp7398
S'29'
p7399
aS'2.0'
p7400
asS'[7.0, 102.0, 121.0, 305.0]'
p7401
(lp7402
S'29'
p7403
aS'2.0'
p7404
asS'[74.0, 77.0, 160.0]'
p7405
(lp7406
S'29'
p7407
aS'2.0'
p7408
asS'[95.0, 120.0]'
p7409
(lp7410
S'29'
p7411
aS'2.0'
p7412
asS'[75.0, 76.0, 225.0]'
p7413
(lp7414
S'29'
p7415
aS'2.0'
p7416
asS'[147.0, 148.0, 178.0, 305.0]'
p7417
(lp7418
S'29'
p7419
aS'2.0'
p7420
asS'[273.0, 305.0]'
p7421
(lp7422
S'20'
p7423
aS'11.0'
p7424
asS'[72.0, 93.0]'
p7425
(lp7426
S'25'
p7427
aS'6.0'
p7428
asS'[38.0]'
p7429
(lp7430
S'25'
p7431
aS'6.0'
p7432
asS'[44.0]'
p7433
(lp7434
S'24'
p7435
aS'7.0'
p7436
asS'[63.0, 87.0, 88.0]'
p7437
(lp7438
S'29'
p7439
aS'2.0'
p7440
asS'[214.0]'
p7441
(lp7442
S'26'
p7443
aS'5.0'
p7444
asS'[71.0, 216.0, 242.0]'
p7445
(lp7446
S'29'
p7447
aS'2.0'
p7448
asS'[66.0, 68.0]'
p7449
(lp7450
S'27'
p7451
aS'4.0'
p7452
asS'[71.0, 216.0, 240.0]'
p7453
(lp7454
S'28'
p7455
aS'3.0'
p7456
asS'[71.0]'
p7457
(lp7458
g710
aS'70.0'
p7459
asS'[152.0, 278.0]'
p7460
(lp7461
S'24'
p7462
aS'7.0'
p7463
asS'[114.0]'
p7464
(lp7465
S'19'
p7466
aS'12.0'
p7467
asS'[71.0, 72.0, 73.0, 74.0, 227.0]'
p7468
(lp7469
S'29'
p7470
aS'2.0'
p7471
asS'[266.0]'
p7472
(lp7473
S'13'
p7474
aS'18.0'
p7475
asS'[208.0, 217.0]'
p7476
(lp7477
S'28'
p7478
aS'3.0'
p7479
asS'[84.0, 157.0]'
p7480
(lp7481
S'29'
p7482
aS'2.0'
p7483
asS'[3.0, 120.0]'
p7484
(lp7485
S'29'
p7486
aS'2.0'
p7487
asS'[7.0]'
p7488
(lp7489
S'21'
p7490
aS'10.0'
p7491
asS'[72.0, 192.0, 200.0]'
p7492
(lp7493
S'29'
p7494
aS'2.0'
p7495
asS'[71.0, 77.0, 251.0]'
p7496
(lp7497
S'29'
p7498
aS'2.0'
p7499
asS'[5.0]'
p7500
(lp7501
S'24'
p7502
aS'7.0'
p7503
asS'[72.0, 76.0, 192.0]'
p7504
(lp7505
S'29'
p7506
aS'2.0'
p7507
asS'[71.0, 73.0, 74.0, 230.0]'
p7508
(lp7509
S'29'
p7510
aS'2.0'
p7511
asS'[55.0, 89.0, 118.0]'
p7512
(lp7513
S'26'
p7514
aS'5.0'
p7515
asS'[73.0, 306.0]'
p7516
(lp7517
S'25'
p7518
aS'6.0'
p7519
asS'[186.0, 195.0, 305.0]'
p7520
(lp7521
S'29'
p7522
aS'2.0'
p7523
asS'[16.0, 27.0, 32.0]'
p7524
(lp7525
S'29'
p7526
aS'2.0'
p7527
asS'[28.0, 305.0]'
p7528
(lp7529
S'26'
p7530
aS'5.0'
p7531
asS'[194.0, 224.0]'
p7532
(lp7533
S'28'
p7534
aS'3.0'
p7535
asS'[1.0]'
p7536
(lp7537
S'25'
p7538
aS'6.0'
p7539
asS'[71.0, 72.0, 229.0]'
p7540
(lp7541
S'28'
p7542
aS'3.0'
p7543
asS'[99.0, 161.0, 305.0]'
p7544
(lp7545
S'28'
p7546
aS'3.0'
p7547
asS'[47.0, 139.0]'
p7548
(lp7549
S'29'
p7550
aS'2.0'
p7551
asS'[117.0, 218.0, 305.0]'
p7552
(lp7553
S'27'
p7554
aS'4.0'
p7555
asS'[117.0, 196.0, 305.0]'
p7556
(lp7557
S'28'
p7558
aS'3.0'
p7559
asS'[75.0, 76.0, 216.0]'
p7560
(lp7561
S'29'
p7562
aS'2.0'
p7563
asS'[16.0, 118.0]'
p7564
(lp7565
S'27'
p7566
aS'4.0'
p7567
asS'[55.0, 85.0, 89.0]'
p7568
(lp7569
S'28'
p7570
aS'3.0'
p7571
asS'[45.0]'
p7572
(lp7573
S'19'
p7574
aS'12.0'
p7575
asS'[217.0, 265.0]'
p7576
(lp7577
S'28'
p7578
aS'3.0'
p7579
asS'[73.0, 141.0]'
p7580
(lp7581
S'27'
p7582
aS'4.0'
p7583
asS'[72.0, 217.0]'
p7584
(lp7585
S'21'
p7586
aS'10.0'
p7587
asS'[13.0, 99.0]'
p7588
(lp7589
S'28'
p7590
aS'3.0'
p7591
asS'[72.0, 215.0]'
p7592
(lp7593
S'24'
p7594
aS'7.0'
p7595
asS'[72.0, 74.0, 192.0]'
p7596
(lp7597
S'29'
p7598
aS'2.0'
p7599
asS'[6.0, 24.0]'
p7600
(lp7601
S'24'
p7602
aS'7.0'
p7603
asS'[71.0, 249.0]'
p7604
(lp7605
S'21'
p7606
aS'10.0'
p7607
asS'[19.0]'
p7608
(lp7609
S'25'
p7610
aS'6.0'
p7611
asS'[237.0, 305.0]'
p7612
(lp7613
g538
aS'29.0'
p7614
asS'[17.0, 40.0]'
p7615
(lp7616
S'29'
p7617
aS'2.0'
p7618
asS'[87.0, 109.0]'
p7619
(lp7620
S'29'
p7621
aS'2.0'
p7622
asS'[74.0, 218.0]'
p7623
(lp7624
S'28'
p7625
aS'3.0'
p7626
asS'[71.0, 72.0, 204.0]'
p7627
(lp7628
S'28'
p7629
aS'3.0'
p7630
asS'[153.0, 251.0, 305.0]'
p7631
(lp7632
S'23'
p7633
aS'8.0'
p7634
asS'[71.0, 77.0, 198.0, 240.0]'
p7635
(lp7636
S'29'
p7637
aS'2.0'
p7638
asS'[61.0, 178.0]'
p7639
(lp7640
S'29'
p7641
aS'2.0'
p7642
asS'[71.0, 187.0, 195.0]'
p7643
(lp7644
S'29'
p7645
aS'2.0'
p7646
asS'[127.0, 213.0]'
p7647
(lp7648
S'26'
p7649
aS'5.0'
p7650
asS'[46.0, 56.0, 86.0]'
p7651
(lp7652
S'27'
p7653
aS'4.0'
p7654
asS'[117.0, 193.0]'
p7655
(lp7656
S'27'
p7657
aS'4.0'
p7658
asS'[76.0, 162.0]'
p7659
(lp7660
S'28'
p7661
aS'3.0'
p7662
asS'[99.0, 120.0]'
p7663
(lp7664
S'29'
p7665
aS'2.0'
p7666
asS'[77.0, 198.0, 217.0]'
p7667
(lp7668
S'28'
p7669
aS'3.0'
p7670
asS'[71.0, 240.0]'
p7671
(lp7672
S'28'
p7673
aS'3.0'
p7674
asS'[145.0, 198.0]'
p7675
(lp7676
S'28'
p7677
aS'3.0'
p7678
asS'[95.0, 128.0]'
p7679
(lp7680
S'27'
p7681
aS'4.0'
p7682
asS'[74.0, 157.0, 193.0]'
p7683
(lp7684
S'27'
p7685
aS'4.0'
p7686
asS'[4.0, 18.0]'
p7687
(lp7688
S'25'
p7689
aS'6.0'
p7690
asS'[81.0, 222.0]'
p7691
(lp7692
S'29'
p7693
aS'2.0'
p7694
asS'[91.0]'
p7695
(lp7696
S'24'
p7697
aS'7.0'
p7698
asS'[63.0, 67.0]'
p7699
(lp7700
S'29'
p7701
aS'2.0'
p7702
asS'[20.0, 121.0]'
p7703
(lp7704
S'28'
p7705
aS'3.0'
p7706
asS'[74.0, 154.0]'
p7707
(lp7708
S'26'
p7709
aS'5.0'
p7710
asS'[47.0]'
p7711
(lp7712
S'25'
p7713
aS'6.0'
p7714
asS'[54.0, 58.0, 109.0]'
p7715
(lp7716
S'29'
p7717
aS'2.0'
p7718
asS'[192.0, 200.0]'
p7719
(lp7720
S'29'
p7721
aS'2.0'
p7722
asS'[78.0, 252.0]'
p7723
(lp7724
S'26'
p7725
aS'5.0'
p7726
asS'[187.0, 305.0]'
p7727
(lp7728
g538
aS'29.0'
p7729
asS'[258.0]'
p7730
(lp7731
S'4'
p7732
aS'30.0'
p7733
asS'[73.0, 76.0, 82.0, 216.0]'
p7734
(lp7735
S'29'
p7736
aS'2.0'
p7737
asS'[12.0]'
p7738
(lp7739
S'19'
p7740
aS'12.0'
p7741
asS'[16.0, 32.0]'
p7742
(lp7743
S'28'
p7744
aS'3.0'
p7745
asS'[76.0, 164.0]'
p7746
(lp7747
S'25'
p7748
aS'6.0'
p7749
asS'[46.0, 56.0, 84.0]'
p7750
(lp7751
S'28'
p7752
aS'3.0'
p7753
asS'[74.0, 228.0]'
p7754
(lp7755
S'29'
p7756
aS'2.0'
p7757
asS'[73.0, 76.0, 82.0]'
p7758
(lp7759
S'28'
p7760
aS'3.0'
p7761
asS'[72.0, 76.0, 215.0, 218.0, 219.0]'
p7762
(lp7763
S'28'
p7764
aS'3.0'
p7765
asS'[76.0, 215.0, 219.0]'
p7766
(lp7767
S'28'
p7768
aS'3.0'
p7769
asS'[71.0, 77.0, 216.0, 226.0]'
p7770
(lp7771
S'29'
p7772
aS'2.0'
p7773
asS'[242.0, 305.0]'
p7774
(lp7775
S'11'
p7776
aS'22.0'
p7777
asS'[73.0, 74.0, 95.0, 141.0]'
p7778
(lp7779
S'29'
p7780
aS'2.0'
p7781
asS'[71.0, 72.0, 73.0, 74.0, 155.0, 216.0]'
p7782
(lp7783
S'29'
p7784
aS'2.0'
p7785
asS'[71.0, 73.0, 185.0]'
p7786
(lp7787
S'29'
p7788
aS'2.0'
p7789
asS'[79.0, 80.0, 148.0]'
p7790
(lp7791
S'29'
p7792
aS'2.0'
p7793
asS'[71.0, 72.0, 155.0]'
p7794
(lp7795
S'28'
p7796
aS'3.0'
p7797
asS'[50.0, 84.0]'
p7798
(lp7799
S'22'
p7800
aS'9.0'
p7801
asS'[192.0, 306.0]'
p7802
(lp7803
S'28'
p7804
aS'3.0'
p7805
asS'[71.0, 77.0]'
p7806
(lp7807
g3655
aS'44.0'
p7808
asS'[208.0, 216.0]'
p7809
(lp7810
S'25'
p7811
aS'6.0'
p7812
asS'[47.0, 58.0]'
p7813
(lp7814
S'28'
p7815
aS'3.0'
p7816
asS'[72.0, 82.0]'
p7817
(lp7818
S'29'
p7819
aS'2.0'
p7820
asS'[72.0, 82.0, 217.0]'
p7821
(lp7822
S'29'
p7823
aS'2.0'
p7824
asS'[18.0, 41.0, 102.0]'
p7825
(lp7826
S'29'
p7827
aS'2.0'
p7828
asS'[94.0, 107.0]'
p7829
(lp7830
S'29'
p7831
aS'2.0'
p7832
asS'[189.0, 259.0, 305.0]'
p7833
(lp7834
S'16'
p7835
aS'15.0'
p7836
asS'[215.0, 219.0]'
p7837
(lp7838
S'28'
p7839
aS'3.0'
p7840
asS'[205.0, 208.0]'
p7841
(lp7842
S'27'
p7843
aS'4.0'
p7844
asS'[17.0, 26.0]'
p7845
(lp7846
S'29'
p7847
aS'2.0'
p7848
asS'[46.0, 138.0]'
p7849
(lp7850
S'29'
p7851
aS'2.0'
p7852
asS'[153.0]'
p7853
(lp7854
g538
aS'29.0'
p7855
asS'[117.0, 189.0, 199.0, 305.0]'
p7856
(lp7857
S'29'
p7858
aS'2.0'
p7859
asS'[148.0, 149.0]'
p7860
(lp7861
S'29'
p7862
aS'2.0'
p7863
asS'[43.0, 89.0]'
p7864
(lp7865
S'23'
p7866
aS'8.0'
p7867
asS'[82.0, 217.0]'
p7868
(lp7869
S'27'
p7870
aS'4.0'
p7871
asS'[140.0, 305.0]'
p7872
(lp7873
S'28'
p7874
aS'3.0'
p7875
asS'[4.0, 118.0]'
p7876
(lp7877
S'29'
p7878
aS'2.0'
p7879
asS'[72.0, 218.0]'
p7880
(lp7881
S'25'
p7882
aS'6.0'
p7883
asS'[271.0, 305.0]'
p7884
(lp7885
S'23'
p7886
aS'8.0'
p7887
asS'[189.0, 199.0]'
p7888
(lp7889
S'27'
p7890
aS'4.0'
p7891
asS'[23.0, 29.0]'
p7892
(lp7893
S'28'
p7894
aS'3.0'
p7895
asS'[180.0, 198.0, 212.0]'
p7896
(lp7897
S'29'
p7898
aS'2.0'
p7899
asS'[28.0, 31.0]'
p7900
(lp7901
S'29'
p7902
aS'2.0'
p7903
asS'[76.0, 252.0]'
p7904
(lp7905
S'28'
p7906
aS'3.0'
p7907
asS'[225.0, 274.0, 305.0]'
p7908
(lp7909
S'23'
p7910
aS'8.0'
p7911
asS'[92.0]'
p7912
(lp7913
S'19'
p7914
aS'12.0'
p7915
asS'[245.0, 252.0, 305.0]'
p7916
(lp7917
S'20'
p7918
aS'11.0'
p7919
asS'[73.0]'
p7920
(lp7921
g347
aS'25.0'
p7922
asS'[71.0, 181.0]'
p7923
(lp7924
g5796
aS'27.0'
p7925
asS'[71.0, 75.0]'
p7926
(lp7927
g710
aS'70.0'
p7928
asS'[48.0, 75.0, 76.0, 216.0]'
p7929
(lp7930
S'29'
p7931
aS'2.0'
p7932
asS'[48.0, 75.0, 216.0]'
p7933
(lp7934
S'29'
p7935
aS'2.0'
p7936
asS'[71.0, 187.0]'
p7937
(lp7938
S'17'
p7939
aS'14.0'
p7940
asS'[80.0, 119.0]'
p7941
(lp7942
S'28'
p7943
aS'3.0'
p7944
asS'[35.0, 40.0, 78.0]'
p7945
(lp7946
S'29'
p7947
aS'2.0'
p7948
asS'[72.0, 76.0, 215.0, 218.0]'
p7949
(lp7950
S'28'
p7951
aS'3.0'
p7952
asS'[71.0, 72.0, 187.0, 195.0]'
p7953
(lp7954
S'29'
p7955
aS'2.0'
p7956
asS'[48.0, 75.0]'
p7957
(lp7958
S'26'
p7959
aS'5.0'
p7960
asS'[18.0]'
p7961
(lp7962
S'17'
p7963
aS'14.0'
p7964
asS'[73.0, 172.0, 222.0]'
p7965
(lp7966
S'28'
p7967
aS'3.0'
p7968
asS'[10.0]'
p7969
(lp7970
S'20'
p7971
aS'11.0'
p7972
asS'[15.0, 31.0]'
p7973
(lp7974
S'27'
p7975
aS'4.0'
p7976
asS'[66.0, 68.0, 112.0]'
p7977
(lp7978
S'29'
p7979
aS'2.0'
p7980
asS'[174.0, 218.0, 219.0]'
p7981
(lp7982
S'28'
p7983
aS'3.0'
p7984
asS'[1.0, 92.0]'
p7985
(lp7986
S'25'
p7987
aS'6.0'
p7988
asS'[25.0, 135.0, 305.0]'
p7989
(lp7990
S'27'
p7991
aS'4.0'
p7992
asS'[205.0, 207.0]'
p7993
(lp7994
S'26'
p7995
aS'5.0'
p7996
asS'[71.0, 185.0]'
p7997
(lp7998
S'29'
p7999
aS'2.0'
p8000
asS'[8.0, 26.0]'
p8001
(lp8002
S'29'
p8003
aS'2.0'
p8004
asS'[71.0, 73.0, 155.0]'
p8005
(lp8006
S'29'
p8007
aS'2.0'
p8008
asS'[6.0, 18.0, 102.0]'
p8009
(lp8010
S'28'
p8011
aS'3.0'
p8012
asS'[95.0, 156.0]'
p8013
(lp8014
S'29'
p8015
aS'2.0'
p8016
asS'[165.0, 168.0]'
p8017
(lp8018
S'29'
p8019
aS'2.0'
p8020
asS'[28.0, 138.0, 305.0]'
p8021
(lp8022
S'28'
p8023
aS'3.0'
p8024
asS'[71.0, 72.0, 208.0, 217.0]'
p8025
(lp8026
S'28'
p8027
aS'3.0'
p8028
asS'[41.0, 77.0, 120.0]'
p8029
(lp8030
S'29'
p8031
aS'2.0'
p8032
asS'[189.0, 199.0, 305.0]'
p8033
(lp8034
S'27'
p8035
aS'4.0'
p8036
asS'[78.0, 81.0, 218.0, 219.0]'
p8037
(lp8038
S'29'
p8039
aS'2.0'
p8040
asS'[71.0, 72.0, 73.0, 74.0, 154.0]'
p8041
(lp8042
S'29'
p8043
aS'2.0'
p8044
asS'[73.0, 74.0, 154.0]'
p8045
(lp8046
S'29'
p8047
aS'2.0'
p8048
asS'[107.0, 305.0]'
p8049
(lp8050
S'29'
p8051
aS'2.0'
p8052
asS'[71.0, 74.0, 81.0, 216.0]'
p8053
(lp8054
S'29'
p8055
aS'2.0'
p8056
asS'[18.0, 122.0]'
p8057
(lp8058
S'21'
p8059
aS'10.0'
p8060
asS'[218.0, 305.0]'
p8061
(lp8062
S'24'
p8063
aS'7.0'
p8064
asS'[131.0]'
p8065
(lp8066
S'29'
p8067
aS'2.0'
p8068
asS'[43.0, 69.0, 77.0]'
p8069
(lp8070
S'28'
p8071
aS'3.0'
p8072
asS'[14.0, 22.0]'
p8073
(lp8074
S'24'
p8075
aS'7.0'
p8076
asS'[71.0, 217.0, 240.0]'
p8077
(lp8078
S'28'
p8079
aS'3.0'
p8080
asS'[89.0, 140.0]'
p8081
(lp8082
S'29'
p8083
aS'2.0'
p8084
asS'[77.0, 198.0]'
p8085
(lp8086
S'23'
p8087
aS'8.0'
p8088
asS'[93.0, 140.0]'
p8089
(lp8090
S'27'
p8091
aS'4.0'
p8092
asS'[195.0, 216.0, 244.0]'
p8093
(lp8094
S'29'
p8095
aS'2.0'
p8096
asS'[1.0, 90.0]'
p8097
(lp8098
S'25'
p8099
aS'6.0'
p8100
asS'[123.0, 199.0, 305.0]'
p8101
(lp8102
S'29'
p8103
aS'2.0'
p8104
asS'[36.0, 77.0]'
p8105
(lp8106
S'29'
p8107
aS'2.0'
p8108
asS'[147.0, 305.0]'
p8109
(lp8110
S'29'
p8111
aS'2.0'
p8112
asS'[194.0, 219.0, 224.0]'
p8113
(lp8114
S'29'
p8115
aS'2.0'
p8116
asS'[74.0, 225.0]'
p8117
(lp8118
S'29'
p8119
aS'2.0'
p8120
asS'[69.0, 89.0]'
p8121
(lp8122
S'25'
p8123
aS'6.0'
p8124
asS'[189.0]'
p8125
(lp8126
g538
aS'29.0'
p8127
asS'[71.0, 72.0, 216.0]'
p8128
(lp8129
S'28'
p8130
aS'3.0'
p8131
asS'[71.0, 75.0, 252.0]'
p8132
(lp8133
S'28'
p8134
aS'3.0'
p8135
asS'[89.0, 101.0]'
p8136
(lp8137
S'24'
p8138
aS'7.0'
p8139
asS'[194.0, 218.0, 223.0]'
p8140
(lp8141
S'29'
p8142
aS'2.0'
p8143
asS'[3.0, 93.0]'
p8144
(lp8145
S'25'
p8146
aS'6.0'
p8147
asS'[240.0, 305.0]'
p8148
(lp8149
S'11'
p8150
aS'22.0'
p8151
asS'[51.0, 71.0, 73.0, 185.0]'
p8152
(lp8153
S'29'
p8154
aS'2.0'
p8155
asS'[243.0, 281.0]'
p8156
(lp8157
S'11'
p8158
aS'22.0'
p8159
asS'[90.0]'
p8160
(lp8161
S'19'
p8162
aS'12.0'
p8163
asS'[74.0, 155.0]'
p8164
(lp8165
S'29'
p8166
aS'2.0'
p8167
asS'[153.0, 167.0, 305.0]'
p8168
(lp8169
S'12'
p8170
aS'19.0'
p8171
asS'[74.0, 227.0]'
p8172
(lp8173
S'29'
p8174
aS'2.0'
p8175
asS'[78.0, 91.0, 120.0]'
p8176
(lp8177
S'28'
p8178
aS'3.0'
p8179
asS'[133.0]'
p8180
(lp8181
S'28'
p8182
aS'3.0'
p8183
asS'[112.0]'
p8184
(lp8185
S'27'
p8186
aS'4.0'
p8187
asS'[74.0, 96.0]'
p8188
(lp8189
S'26'
p8190
aS'5.0'
p8191
asS'[224.0]'
p8192
(lp8193
S'28'
p8194
aS'3.0'
p8195
asS'[8.0, 34.0]'
p8196
(lp8197
S'28'
p8198
aS'3.0'
p8199
asS'[56.0, 96.0]'
p8200
(lp8201
S'27'
p8202
aS'4.0'
p8203
asS'[270.0, 280.0]'
p8204
(lp8205
S'26'
p8206
aS'5.0'
p8207
asS'[71.0, 81.0, 174.0]'
p8208
(lp8209
S'29'
p8210
aS'2.0'
p8211
asS'[72.0, 78.0, 252.0]'
p8212
(lp8213
S'27'
p8214
aS'4.0'
p8215
asS'[71.0, 217.0, 242.0]'
p8216
(lp8217
S'29'
p8218
aS'2.0'
p8219
asS'[72.0, 76.0, 225.0]'
p8220
(lp8221
S'29'
p8222
aS'2.0'
p8223
asS'[258.0, 305.0]'
p8224
(lp8225
g7732
aS'30.0'
p8226
asS'[241.0, 280.0]'
p8227
(lp8228
S'24'
p8229
aS'7.0'
p8230
asS'[71.0, 195.0, 203.0]'
p8231
(lp8232
S'29'
p8233
aS'2.0'
p8234
asS'[269.0, 277.0]'
p8235
(lp8236
S'29'
p8237
aS'2.0'
p8238
asS'[71.0, 81.0, 216.0]'
p8239
(lp8240
S'29'
p8241
aS'2.0'
p8242
asS'[226.0]'
p8243
(lp8244
S'16'
p8245
aS'15.0'
p8246
asS'[72.0, 235.0]'
p8247
(lp8248
S'22'
p8249
aS'9.0'
p8250
asS'[230.0, 279.0]'
p8251
(lp8252
S'15'
p8253
aS'16.0'
p8254
asS'[248.0, 249.0]'
p8255
(lp8256
S'23'
p8257
aS'8.0'
p8258
asS'[188.0, 195.0, 305.0]'
p8259
(lp8260
S'26'
p8261
aS'5.0'
p8262
asS'[98.0, 139.0]'
p8263
(lp8264
S'29'
p8265
aS'2.0'
p8266
asS'[72.0, 237.0]'
p8267
(lp8268
S'22'
p8269
aS'9.0'
p8270
asS'[43.0, 77.0, 82.0]'
p8271
(lp8272
S'29'
p8273
aS'2.0'
p8274
asS'[47.0, 72.0, 76.0]'
p8275
(lp8276
S'27'
p8277
aS'4.0'
p8278
asS'[23.0, 29.0, 40.0]'
p8279
(lp8280
S'29'
p8281
aS'2.0'
p8282
asS'[53.0, 92.0]'
p8283
(lp8284
S'29'
p8285
aS'2.0'
p8286
asS'[72.0, 207.0, 216.0]'
p8287
(lp8288
S'25'
p8289
aS'6.0'
p8290
asS'[235.0, 277.0]'
p8291
(lp8292
S'25'
p8293
aS'6.0'
p8294
asS'[33.0, 40.0]'
p8295
(lp8296
S'29'
p8297
aS'2.0'
p8298
asS'[12.0, 27.0]'
p8299
(lp8300
S'29'
p8301
aS'2.0'
p8302
asS'[73.0, 147.0]'
p8303
(lp8304
S'26'
p8305
aS'5.0'
p8306
asS'[81.0, 174.0, 217.0, 218.0, 219.0]'
p8307
(lp8308
S'29'
p8309
aS'2.0'
p8310
asS'[241.0, 247.0, 305.0]'
p8311
(lp8312
S'22'
p8313
aS'9.0'
p8314
asS'[242.0, 279.0, 305.0]'
p8315
(lp8316
S'22'
p8317
aS'9.0'
p8318
asS'[83.0, 113.0]'
p8319
(lp8320
S'28'
p8321
aS'3.0'
p8322
asS'[71.0, 96.0, 103.0]'
p8323
(lp8324
S'29'
p8325
aS'2.0'
p8326
asS'[11.0, 19.0]'
p8327
(lp8328
S'29'
p8329
aS'2.0'
p8330
asS'[127.0, 166.0]'
p8331
(lp8332
S'22'
p8333
aS'9.0'
p8334
asS'[71.0, 72.0, 187.0]'
p8335
(lp8336
S'28'
p8337
aS'3.0'
p8338
asS'[70.0, 78.0]'
p8339
(lp8340
S'28'
p8341
aS'3.0'
p8342
asS'[17.0, 121.0]'
p8343
(lp8344
S'24'
p8345
aS'7.0'
p8346
asS'[49.0, 83.0]'
p8347
(lp8348
S'26'
p8349
aS'5.0'
p8350
asS'[16.0]'
p8351
(lp8352
S'17'
p8353
aS'14.0'
p8354
asS'[73.0, 74.0, 227.0]'
p8355
(lp8356
S'29'
p8357
aS'2.0'
p8358
asS'[46.0, 62.0]'
p8359
(lp8360
S'29'
p8361
aS'2.0'
p8362
asS'[74.0, 81.0, 142.0]'
p8363
(lp8364
S'28'
p8365
aS'3.0'
p8366
asS'[46.0, 70.0, 90.0]'
p8367
(lp8368
S'28'
p8369
aS'3.0'
p8370
asS'[228.0, 276.0, 305.0]'
p8371
(lp8372
S'29'
p8373
aS'2.0'
p8374
asS'[267.0, 305.0]'
p8375
(lp8376
S'13'
p8377
aS'18.0'
p8378
asS'[178.0, 237.0, 305.0]'
p8379
(lp8380
S'29'
p8381
aS'2.0'
p8382
asS'[179.0]'
p8383
(lp8384
g1543
aS'61.0'
p8385
asS'[237.0]'
p8386
(lp8387
g538
aS'29.0'
p8388
asS'[280.0, 305.0]'
p8389
(lp8390
g347
aS'25.0'
p8391
asS'[270.0, 277.0, 305.0]'
p8392
(lp8393
S'29'
p8394
aS'2.0'
p8395
asS'[93.0, 96.0, 140.0]'
p8396
(lp8397
S'29'
p8398
aS'2.0'
p8399
asS'[33.0, 43.0]'
p8400
(lp8401
S'27'
p8402
aS'4.0'
p8403
asS'[9.0, 15.0]'
p8404
(lp8405
S'25'
p8406
aS'6.0'
p8407
asS'[71.0, 227.0]'
p8408
(lp8409
S'29'
p8410
aS'2.0'
p8411
asS'[45.0, 85.0, 89.0]'
p8412
(lp8413
S'28'
p8414
aS'3.0'
p8415
asS'[73.0, 74.0, 193.0, 217.0]'
p8416
(lp8417
S'29'
p8418
aS'2.0'
p8419
asS'[235.0, 276.0]'
p8420
(lp8421
S'10'
p8422
aS'23.0'
p8423
asS'[71.0, 225.0]'
p8424
(lp8425
S'27'
p8426
aS'4.0'
p8427
asS'[49.0]'
p8428
(lp8429
S'24'
p8430
aS'7.0'
p8431
asS'[37.0, 91.0]'
p8432
(lp8433
S'29'
p8434
aS'2.0'
p8435
asS'[58.0, 84.0]'
p8436
(lp8437
S'29'
p8438
aS'2.0'
p8439
asS'[115.0, 306.0]'
p8440
(lp8441
S'26'
p8442
aS'5.0'
p8443
asS'[280.0]'
p8444
(lp8445
g347
aS'25.0'
p8446
asS'[17.0, 78.0]'
p8447
(lp8448
S'12'
p8449
aS'19.0'
p8450
asS'[46.0, 56.0]'
p8451
(lp8452
S'23'
p8453
aS'8.0'
p8454
asS'[89.0, 121.0]'
p8455
(lp8456
S'21'
p8457
aS'10.0'
p8458
asS'[227.0, 276.0]'
p8459
(lp8460
S'29'
p8461
aS'2.0'
p8462
asS'[74.0, 192.0, 306.0]'
p8463
(lp8464
S'28'
p8465
aS'3.0'
p8466
asS'[81.0, 177.0]'
p8467
(lp8468
S'29'
p8469
aS'2.0'
p8470
asS'[74.0, 172.0, 222.0]'
p8471
(lp8472
S'28'
p8473
aS'3.0'
p8474
asS'[1.0, 145.0]'
p8475
(lp8476
S'29'
p8477
aS'2.0'
p8478
asS'[233.0, 282.0]'
p8479
(lp8480
S'15'
p8481
aS'16.0'
p8482
asS'[72.0, 104.0]'
p8483
(lp8484
S'20'
p8485
aS'11.0'
p8486
asS'[229.0, 278.0, 305.0]'
p8487
(lp8488
S'16'
p8489
aS'15.0'
p8490
asS'[73.0, 74.0, 225.0]'
p8491
(lp8492
S'29'
p8493
aS'2.0'
p8494
asS'[222.0]'
p8495
(lp8496
S'27'
p8497
aS'4.0'
p8498
asS'[74.0, 217.0, 219.0]'
p8499
(lp8500
S'29'
p8501
aS'2.0'
p8502
asS'[71.0, 72.0, 195.0, 216.0]'
p8503
(lp8504
S'29'
p8505
aS'2.0'
p8506
asS'[44.0, 90.0]'
p8507
(lp8508
S'27'
p8509
aS'4.0'
p8510
asS'[189.0, 250.0]'
p8511
(lp8512
S'23'
p8513
aS'8.0'
p8514
asS'[71.0, 155.0]'
p8515
(lp8516
S'21'
p8517
aS'10.0'
p8518
asS'[170.0, 173.0]'
p8519
(lp8520
S'26'
p8521
aS'5.0'
p8522
asS'[52.0, 55.0]'
p8523
(lp8524
S'24'
p8525
aS'7.0'
p8526
asS'[81.0, 218.0]'
p8527
(lp8528
S'28'
p8529
aS'3.0'
p8530
asS'[241.0, 280.0, 305.0]'
p8531
(lp8532
S'24'
p8533
aS'7.0'
p8534
asS'[158.0, 192.0, 200.0]'
p8535
(lp8536
S'29'
p8537
aS'2.0'
p8538
asS'[41.0, 93.0]'
p8539
(lp8540
S'27'
p8541
aS'4.0'
p8542
asS'[71.0, 74.0, 227.0]'
p8543
(lp8544
S'29'
p8545
aS'2.0'
p8546
asS'[57.0, 88.0]'
p8547
(lp8548
S'29'
p8549
aS'2.0'
p8550
asS'[187.0, 189.0, 195.0, 305.0]'
p8551
(lp8552
S'29'
p8553
aS'2.0'
p8554
asS'[46.0, 56.0, 90.0]'
p8555
(lp8556
S'24'
p8557
aS'7.0'
p8558
asS'[90.0, 145.0, 198.0]'
p8559
(lp8560
S'29'
p8561
aS'2.0'
p8562
asS'[52.0, 110.0]'
p8563
(lp8564
S'19'
p8565
aS'12.0'
p8566
asS'[55.0, 89.0]'
p8567
(lp8568
S'24'
p8569
aS'7.0'
p8570
asS'[13.0, 21.0]'
p8571
(lp8572
S'23'
p8573
aS'8.0'
p8574
asS'[81.0, 120.0]'
p8575
(lp8576
S'29'
p8577
aS'2.0'
p8578
asS'[78.0, 235.0]'
p8579
(lp8580
S'27'
p8581
aS'4.0'
p8582
asS'[174.0, 216.0]'
p8583
(lp8584
S'29'
p8585
aS'2.0'
p8586
asS'[147.0, 205.0, 220.0]'
p8587
(lp8588
S'29'
p8589
aS'2.0'
p8590
asS'[77.0, 92.0, 120.0]'
p8591
(lp8592
S'27'
p8593
aS'4.0'
p8594
asS'[72.0, 73.0, 74.0, 145.0]'
p8595
(lp8596
S'29'
p8597
aS'2.0'
p8598
asS'[122.0, 305.0]'
p8599
(lp8600
S'21'
p8601
aS'10.0'
p8602
asS'[1.0, 72.0, 145.0]'
p8603
(lp8604
S'29'
p8605
aS'2.0'
p8606
asS'[154.0]'
p8607
(lp8608
S'13'
p8609
aS'18.0'
p8610
asS'[74.0, 75.0, 225.0]'
p8611
(lp8612
S'29'
p8613
aS'2.0'
p8614
asS'[12.0, 24.0, 30.0]'
p8615
(lp8616
S'28'
p8617
aS'3.0'
p8618
asS'[71.0, 72.0, 192.0]'
p8619
(lp8620
S'29'
p8621
aS'2.0'
p8622
asS'[31.0, 305.0]'
p8623
(lp8624
S'22'
p8625
aS'9.0'
p8626
asS'[73.0, 74.0, 193.0, 216.0]'
p8627
(lp8628
S'29'
p8629
aS'2.0'
p8630
asS'[3.0, 17.0, 121.0]'
p8631
(lp8632
S'29'
p8633
aS'2.0'
p8634
asS'[235.0]'
p8635
(lp8636
g538
aS'29.0'
p8637
asS'[72.0, 73.0, 82.0, 217.0]'
p8638
(lp8639
S'29'
p8640
aS'2.0'
p8641
asS'[220.0]'
p8642
(lp8643
S'25'
p8644
aS'6.0'
p8645
asS'[23.0, 222.0]'
p8646
(lp8647
S'27'
p8648
aS'4.0'
p8649
asS'[6.0, 18.0, 41.0]'
p8650
(lp8651
S'28'
p8652
aS'3.0'
p8653
asS'[45.0, 55.0, 85.0]'
p8654
(lp8655
S'29'
p8656
aS'2.0'
p8657
asS'[253.0]'
p8658
(lp8659
S'21'
p8660
aS'10.0'
p8661
asS'[45.0, 55.0, 85.0, 89.0]'
p8662
(lp8663
S'29'
p8664
aS'2.0'
p8665
asS'[75.0, 155.0, 216.0]'
p8666
(lp8667
S'29'
p8668
aS'2.0'
p8669
asS'[245.0, 252.0]'
p8670
(lp8671
S'20'
p8672
aS'11.0'
p8673
asS'[95.0, 100.0, 120.0]'
p8674
(lp8675
S'29'
p8676
aS'2.0'
p8677
asS'[72.0, 187.0]'
p8678
(lp8679
S'17'
p8680
aS'14.0'
p8681
asS'[34.0, 44.0]'
p8682
(lp8683
S'24'
p8684
aS'7.0'
p8685
asS'[18.0, 92.0]'
p8686
(lp8687
S'21'
p8688
aS'10.0'
p8689
asS'[72.0, 73.0, 193.0, 216.0]'
p8690
(lp8691
S'29'
p8692
aS'2.0'
p8693
asS'[81.0, 174.0, 219.0]'
p8694
(lp8695
S'29'
p8696
aS'2.0'
p8697
asS'[48.0, 52.0]'
p8698
(lp8699
S'20'
p8700
aS'11.0'
p8701
asS'[71.0, 74.0, 75.0, 81.0, 217.0]'
p8702
(lp8703
S'29'
p8704
aS'2.0'
p8705
asS'[71.0, 204.0]'
p8706
(lp8707
S'28'
p8708
aS'3.0'
p8709
asS'[116.0, 179.0]'
p8710
(lp8711
S'27'
p8712
aS'4.0'
p8713
asS'[96.0, 128.0]'
p8714
(lp8715
S'26'
p8716
aS'5.0'
p8717
asS'[71.0, 174.0, 217.0]'
p8718
(lp8719
S'29'
p8720
aS'2.0'
p8721
asS'[232.0, 281.0]'
p8722
(lp8723
S'15'
p8724
aS'16.0'
p8725
asS'[63.0, 87.0]'
p8726
(lp8727
S'29'
p8728
aS'2.0'
p8729
asS'[78.0, 165.0]'
p8730
(lp8731
S'25'
p8732
aS'6.0'
p8733
asS'[72.0, 197.0]'
p8734
(lp8735
S'29'
p8736
aS'2.0'
p8737
asS'[139.0, 305.0]'
p8738
(lp8739
S'28'
p8740
aS'3.0'
p8741
asS'[252.0, 276.0]'
p8742
(lp8743
S'29'
p8744
aS'2.0'
p8745
asS'[236.0]'
p8746
(lp8747
g538
aS'29.0'
p8748
asS'[74.0, 77.0, 155.0, 216.0]'
p8749
(lp8750
S'29'
p8751
aS'2.0'
p8752
asS'[234.0]'
p8753
(lp8754
g538
aS'29.0'
p8755
asS'[67.0, 109.0]'
p8756
(lp8757
S'28'
p8758
aS'3.0'
p8759
asS'[177.0, 305.0]'
p8760
(lp8761
g347
aS'25.0'
p8762
asS'[28.0, 137.0]'
p8763
(lp8764
S'26'
p8765
aS'5.0'
p8766
asS'[48.0, 80.0, 82.0]'
p8767
(lp8768
S'29'
p8769
aS'2.0'
p8770
asS'[186.0, 275.0]'
p8771
(lp8772
S'15'
p8773
aS'16.0'
p8774
asS'[62.0, 110.0]'
p8775
(lp8776
S'22'
p8777
aS'9.0'
p8778
asS'[74.0, 75.0, 154.0]'
p8779
(lp8780
S'28'
p8781
aS'3.0'
p8782
asS'[71.0, 174.0, 216.0]'
p8783
(lp8784
S'29'
p8785
aS'2.0'
p8786
asS'[71.0, 72.0, 73.0, 74.0, 192.0]'
p8787
(lp8788
S'29'
p8789
aS'2.0'
p8790
asS'[77.0, 162.0]'
p8791
(lp8792
S'23'
p8793
aS'8.0'
p8794
asS'[117.0, 196.0]'
p8795
(lp8796
S'28'
p8797
aS'3.0'
p8798
asS'[245.0, 270.0, 305.0]'
p8799
(lp8800
S'27'
p8801
aS'4.0'
p8802
asS'[73.0, 82.0, 141.0]'
p8803
(lp8804
S'27'
p8805
aS'4.0'
p8806
asS'[51.0, 59.0]'
p8807
(lp8808
S'28'
p8809
aS'3.0'
p8810
asS'[71.0, 73.0, 74.0, 192.0, 217.0]'
p8811
(lp8812
S'29'
p8813
aS'2.0'
p8814
asS'[72.0, 74.0, 154.0]'
p8815
(lp8816
S'29'
p8817
aS'2.0'
p8818
asS'[94.0, 107.0, 140.0]'
p8819
(lp8820
S'29'
p8821
aS'2.0'
p8822
asS'[133.0, 160.0]'
p8823
(lp8824
S'29'
p8825
aS'2.0'
p8826
asS'[45.0, 85.0]'
p8827
(lp8828
S'23'
p8829
aS'8.0'
p8830
asS'[218.0, 219.0, 306.0]'
p8831
(lp8832
S'29'
p8833
aS'2.0'
p8834
asS'[75.0, 155.0]'
p8835
(lp8836
S'21'
p8837
aS'10.0'
p8838
asS'[219.0]'
p8839
(lp8840
S'24'
p8841
aS'7.0'
p8842
asS'[71.0, 74.0, 75.0, 81.0, 216.0]'
p8843
(lp8844
S'29'
p8845
aS'2.0'
p8846
asS'[74.0, 142.0]'
p8847
(lp8848
S'27'
p8849
aS'4.0'
p8850
asS'[251.0, 305.0]'
p8851
(lp8852
S'21'
p8853
aS'10.0'
p8854
asS'[81.0, 219.0]'
p8855
(lp8856
S'29'
p8857
aS'2.0'
p8858
asS'[71.0, 72.0, 93.0]'
p8859
(lp8860
S'28'
p8861
aS'3.0'
p8862
asS'[35.0, 101.0, 122.0]'
p8863
(lp8864
S'27'
p8865
aS'4.0'
p8866
asS'[102.0, 121.0]'
p8867
(lp8868
S'24'
p8869
aS'7.0'
p8870
asS'[15.0, 23.0, 118.0]'
p8871
(lp8872
S'29'
p8873
aS'2.0'
p8874
asS'[195.0, 244.0]'
p8875
(lp8876
S'27'
p8877
aS'4.0'
p8878
asS'[75.0, 81.0, 216.0]'
p8879
(lp8880
S'28'
p8881
aS'3.0'
p8882
asS'[242.0, 248.0]'
p8883
(lp8884
S'22'
p8885
aS'9.0'
p8886
asS'[73.0, 76.0, 225.0]'
p8887
(lp8888
S'29'
p8889
aS'2.0'
p8890
asS'[139.0]'
p8891
(lp8892
S'25'
p8893
aS'6.0'
p8894
asS'[245.0, 269.0]'
p8895
(lp8896
S'27'
p8897
aS'4.0'
p8898
asS'[40.0, 101.0]'
p8899
(lp8900
S'28'
p8901
aS'3.0'
p8902
asS'[71.0, 217.0]'
p8903
(lp8904
S'23'
p8905
aS'8.0'
p8906
asS'[282.0]'
p8907
(lp8908
g347
aS'25.0'
p8909
asS'[115.0, 199.0, 306.0]'
p8910
(lp8911
S'26'
p8912
aS'5.0'
p8913
asS'[73.0, 82.0, 147.0]'
p8914
(lp8915
S'27'
p8916
aS'4.0'
p8917
asS'[55.0, 135.0]'
p8918
(lp8919
S'27'
p8920
aS'4.0'
p8921
asS'[74.0, 217.0, 218.0, 219.0]'
p8922
(lp8923
S'29'
p8924
aS'2.0'
p8925
asS'[17.0, 40.0, 78.0]'
p8926
(lp8927
S'29'
p8928
aS'2.0'
p8929
asS'[74.0, 217.0]'
p8930
(lp8931
S'25'
p8932
aS'6.0'
p8933
asS'[256.0, 279.0, 305.0]'
p8934
(lp8935
S'28'
p8936
aS'3.0'
p8937
asS'[248.0]'
p8938
(lp8939
g538
aS'29.0'
p8940
asS'[246.0, 270.0]'
p8941
(lp8942
S'27'
p8943
aS'4.0'
p8944
asS'[116.0, 306.0]'
p8945
(lp8946
S'26'
p8947
aS'5.0'
p8948
asS'[246.0, 255.0]'
p8949
(lp8950
S'23'
p8951
aS'8.0'
p8952
asS'[8.0, 102.0, 121.0]'
p8953
(lp8954
S'28'
p8955
aS'3.0'
p8956
asS'[188.0, 275.0]'
p8957
(lp8958
S'10'
p8959
aS'23.0'
p8960
asS'[71.0, 73.0, 228.0]'
p8961
(lp8962
S'29'
p8963
aS'2.0'
p8964
asS'[193.0, 306.0]'
p8965
(lp8966
S'28'
p8967
aS'3.0'
p8968
asS'[71.0, 74.0, 185.0]'
p8969
(lp8970
S'29'
p8971
aS'2.0'
p8972
asS'[238.0]'
p8973
(lp8974
g538
aS'29.0'
p8975
asS'[72.0, 188.0]'
p8976
(lp8977
S'26'
p8978
aS'5.0'
p8979
asS'[71.0, 72.0, 73.0, 74.0, 192.0, 217.0]'
p8980
(lp8981
S'29'
p8982
aS'2.0'
p8983
asS'[72.0, 76.0, 186.0]'
p8984
(lp8985
S'29'
p8986
aS'2.0'
p8987
asS'[55.0, 83.0]'
p8988
(lp8989
S'21'
p8990
aS'10.0'
p8991
asS'[147.0, 177.0]'
p8992
(lp8993
S'25'
p8994
aS'6.0'
p8995
asS'[95.0, 103.0]'
p8996
(lp8997
S'29'
p8998
aS'2.0'
p8999
asS'[98.0]'
p9000
(lp9001
S'26'
p9002
aS'5.0'
p9003
asS'[49.0, 54.0]'
p9004
(lp9005
S'26'
p9006
aS'5.0'
p9007
asS'[71.0, 74.0, 225.0]'
p9008
(lp9009
S'29'
p9010
aS'2.0'
p9011
asS'[72.0, 225.0]'
p9012
(lp9013
S'27'
p9014
aS'4.0'
p9015
asS'[233.0]'
p9016
(lp9017
S'15'
p9018
aS'16.0'
p9019
asS'[2.0, 77.0]'
p9020
(lp9021
S'27'
p9022
aS'4.0'
p9023
asS'[187.0, 199.0]'
p9024
(lp9025
S'29'
p9026
aS'2.0'
p9027
asS'[99.0, 161.0]'
p9028
(lp9029
S'28'
p9030
aS'3.0'
p9031
asS'[182.0, 198.0, 216.0]'
p9032
(lp9033
S'28'
p9034
aS'3.0'
p9035
asS'[79.0, 81.0, 148.0]'
p9036
(lp9037
S'27'
p9038
aS'4.0'
p9039
asS'[8.0, 102.0, 305.0]'
p9040
(lp9041
S'27'
p9042
aS'4.0'
p9043
asS'[72.0, 73.0, 155.0]'
p9044
(lp9045
S'27'
p9046
aS'4.0'
p9047
asS'[235.0, 245.0]'
p9048
(lp9049
S'29'
p9050
aS'2.0'
p9051
asS'[76.0, 225.0]'
p9052
(lp9053
S'29'
p9054
aS'2.0'
p9055
asS'[2.0, 89.0, 145.0]'
p9056
(lp9057
S'29'
p9058
aS'2.0'
p9059
asS'[247.0, 265.0, 305.0]'
p9060
(lp9061
S'16'
p9062
aS'15.0'
p9063
asS'[72.0, 173.0]'
p9064
(lp9065
S'29'
p9066
aS'2.0'
p9067
asS'[62.0, 74.0]'
p9068
(lp9069
S'28'
p9070
aS'3.0'
p9071
asS'[17.0, 40.0, 91.0]'
p9072
(lp9073
S'29'
p9074
aS'2.0'
p9075
asS'[112.0, 147.0, 148.0, 178.0]'
p9076
(lp9077
S'29'
p9078
aS'2.0'
p9079
asS'[147.0, 220.0]'
p9080
(lp9081
S'29'
p9082
aS'2.0'
p9083
asS'[73.0, 74.0, 96.0]'
p9084
(lp9085
S'29'
p9086
aS'2.0'
p9087
asS'[187.0, 189.0, 305.0]'
p9088
(lp9089
S'29'
p9090
aS'2.0'
p9091
asS'[187.0]'
p9092
(lp9093
g538
aS'29.0'
p9094
asS'[62.0, 78.0]'
p9095
(lp9096
S'29'
p9097
aS'2.0'
p9098
asS'[3.0, 9.0, 21.0]'
p9099
(lp9100
S'29'
p9101
aS'2.0'
p9102
asS'[74.0, 79.0, 81.0, 148.0]'
p9103
(lp9104
S'29'
p9105
aS'2.0'
p9106
asS'[74.0, 75.0, 155.0, 216.0]'
p9107
(lp9108
S'29'
p9109
aS'2.0'
p9110
asS'[57.0, 88.0, 114.0]'
p9111
(lp9112
S'29'
p9113
aS'2.0'
p9114
asS'[71.0, 72.0, 73.0, 74.0, 216.0]'
p9115
(lp9116
S'29'
p9117
aS'2.0'
p9118
asS'[77.0, 91.0, 120.0]'
p9119
(lp9120
S'29'
p9121
aS'2.0'
p9122
asS'[72.0, 188.0, 195.0]'
p9123
(lp9124
S'29'
p9125
aS'2.0'
p9126
asS'[72.0, 78.0, 155.0]'
p9127
(lp9128
S'29'
p9129
aS'2.0'
p9130
asS'[19.0, 23.0, 118.0]'
p9131
(lp9132
S'29'
p9133
aS'2.0'
p9134
asS'[43.0, 119.0]'
p9135
(lp9136
S'26'
p9137
aS'5.0'
p9138
asS'[117.0, 218.0, 219.0, 305.0]'
p9139
(lp9140
S'27'
p9141
aS'4.0'
p9142
asS'[48.0, 62.0, 72.0]'
p9143
(lp9144
S'29'
p9145
aS'2.0'
p9146
asS'[10.0, 24.0]'
p9147
(lp9148
S'23'
p9149
aS'8.0'
p9150
asS'[71.0, 77.0, 226.0]'
p9151
(lp9152
S'29'
p9153
aS'2.0'
p9154
asS'[64.0, 88.0]'
p9155
(lp9156
S'29'
p9157
aS'2.0'
p9158
asS'[55.0, 158.0]'
p9159
(lp9160
S'29'
p9161
aS'2.0'
p9162
asS'[72.0, 76.0, 155.0]'
p9163
(lp9164
S'29'
p9165
aS'2.0'
p9166
asS'[138.0, 214.0]'
p9167
(lp9168
S'26'
p9169
aS'5.0'
p9170
asS'[24.0, 118.0]'
p9171
(lp9172
S'26'
p9173
aS'5.0'
p9174
asS'[118.0]'
p9175
(lp9176
S'19'
p9177
aS'12.0'
p9178
asS'[52.0, 154.0]'
p9179
(lp9180
S'29'
p9181
aS'2.0'
p9182
asS'[245.0]'
p9183
(lp9184
g538
aS'29.0'
p9185
asS'[71.0, 72.0, 255.0]'
p9186
(lp9187
S'28'
p9188
aS'3.0'
p9189
asS'[253.0, 305.0]'
p9190
(lp9191
S'21'
p9192
aS'10.0'
p9193
asS'[72.0, 73.0]'
p9194
(lp9195
g347
aS'25.0'
p9196
asS'[73.0, 74.0, 142.0]'
p9197
(lp9198
S'29'
p9199
aS'2.0'
p9200
asS'[60.0, 112.0]'
p9201
(lp9202
S'29'
p9203
aS'2.0'
p9204
asS'[1.0, 90.0, 145.0]'
p9205
(lp9206
S'29'
p9207
aS'2.0'
p9208
asS'[153.0, 252.0, 305.0]'
p9209
(lp9210
S'13'
p9211
aS'18.0'
p9212
asS'[30.0, 305.0]'
p9213
(lp9214
S'25'
p9215
aS'6.0'
p9216
asS'[48.0, 76.0]'
p9217
(lp9218
S'29'
p9219
aS'2.0'
p9220
asS'[47.0, 61.0, 76.0]'
p9221
(lp9222
S'29'
p9223
aS'2.0'
p9224
asS'[42.0, 217.0]'
p9225
(lp9226
S'27'
p9227
aS'4.0'
p9228
asS'[79.0]'
p9229
(lp9230
S'26'
p9231
aS'5.0'
p9232
asS'[177.0, 269.0, 305.0]'
p9233
(lp9234
S'29'
p9235
aS'2.0'
p9236
asS'[117.0, 218.0]'
p9237
(lp9238
S'27'
p9239
aS'4.0'
p9240
asS'[1.0, 53.0, 92.0]'
p9241
(lp9242
S'29'
p9243
aS'2.0'
p9244
asS'[71.0, 239.0]'
p9245
(lp9246
S'24'
p9247
aS'7.0'
p9248
asS'[216.0, 266.0]'
p9249
(lp9250
S'29'
p9251
aS'2.0'
p9252
asS'[1.0, 72.0]'
p9253
(lp9254
S'29'
p9255
aS'2.0'
p9256
asS'[72.0, 73.0, 82.0]'
p9257
(lp9258
S'29'
p9259
aS'2.0'
p9260
asS'[60.0, 110.0]'
p9261
(lp9262
S'21'
p9263
aS'10.0'
p9264
asS'[90.0, 99.0]'
p9265
(lp9266
S'28'
p9267
aS'3.0'
p9268
asS'[124.0, 305.0]'
p9269
(lp9270
S'27'
p9271
aS'4.0'
p9272
asS'[6.0, 305.0]'
p9273
(lp9274
S'23'
p9275
aS'8.0'
p9276
asS'[135.0, 305.0]'
p9277
(lp9278
S'22'
p9279
aS'9.0'
p9280
asS'[72.0, 73.0, 76.0, 154.0]'
p9281
(lp9282
S'28'
p9283
aS'3.0'
p9284
asS'[165.0]'
p9285
(lp9286
S'21'
p9287
aS'10.0'
p9288
asS'[47.0, 51.0, 61.0]'
p9289
(lp9290
S'29'
p9291
aS'2.0'
p9292
asS'[232.0, 281.0, 305.0]'
p9293
(lp9294
S'16'
p9295
aS'15.0'
p9296
asS'[48.0, 76.0, 82.0]'
p9297
(lp9298
S'29'
p9299
aS'2.0'
p9300
asS'[71.0, 74.0, 77.0, 155.0, 216.0]'
p9301
(lp9302
S'29'
p9303
aS'2.0'
p9304
asS'[250.0, 274.0]'
p9305
(lp9306
S'28'
p9307
aS'3.0'
p9308
asS'[241.0]'
p9309
(lp9310
S'11'
p9311
aS'22.0'
p9312
asS'[243.0]'
p9313
(lp9314
S'11'
p9315
aS'22.0'
p9316
asS'[5.0, 101.0, 305.0]'
p9317
(lp9318
S'27'
p9319
aS'4.0'
p9320
asS'[136.0, 305.0]'
p9321
(lp9322
S'22'
p9323
aS'9.0'
p9324
asS'[52.0, 57.0]'
p9325
(lp9326
S'28'
p9327
aS'3.0'
p9328
asS'[16.0, 90.0]'
p9329
(lp9330
S'29'
p9331
aS'2.0'
p9332
asS'[71.0, 181.0, 198.0]'
p9333
(lp9334
S'28'
p9335
aS'3.0'
p9336
asS'[218.0, 276.0, 305.0]'
p9337
(lp9338
S'29'
p9339
aS'2.0'
p9340
asS'[170.0, 217.0]'
p9341
(lp9342
S'29'
p9343
aS'2.0'
p9344
asS'[45.0, 69.0, 89.0]'
p9345
(lp9346
S'28'
p9347
aS'3.0'
p9348
asS'[72.0, 216.0, 240.0]'
p9349
(lp9350
S'29'
p9351
aS'2.0'
p9352
asS'[88.0]'
p9353
(lp9354
S'22'
p9355
aS'9.0'
p9356
asS'[78.0, 162.0]'
p9357
(lp9358
S'23'
p9359
aS'8.0'
p9360
asS'[246.0, 305.0]'
p9361
(lp9362
g538
aS'29.0'
p9363
asS'[164.0]'
p9364
(lp9365
S'14'
p9366
aS'17.0'
p9367
asS'[246.0, 263.0, 305.0]'
p9368
(lp9369
S'16'
p9370
aS'15.0'
p9371
asS'[71.0, 200.0]'
p9372
(lp9373
S'26'
p9374
aS'5.0'
p9375
asS'[100.0, 124.0]'
p9376
(lp9377
S'29'
p9378
aS'2.0'
p9379
asS'[81.0, 120.0, 216.0]'
p9380
(lp9381
S'29'
p9382
aS'2.0'
p9383
asS'[6.0, 102.0]'
p9384
(lp9385
S'23'
p9386
aS'8.0'
p9387
asS'[71.0, 74.0, 77.0, 216.0]'
p9388
(lp9389
S'29'
p9390
aS'2.0'
p9391
asS'[71.0, 204.0, 217.0]'
p9392
(lp9393
S'28'
p9394
aS'3.0'
p9395
asS'[73.0, 74.0, 192.0, 217.0]'
p9396
(lp9397
S'29'
p9398
aS'2.0'
p9399
asS'[137.0, 305.0]'
p9400
(lp9401
S'27'
p9402
aS'4.0'
p9403
asS'[9.0, 15.0, 23.0]'
p9404
(lp9405
S'25'
p9406
aS'6.0'
p9407
asS'[94.0, 140.0]'
p9408
(lp9409
S'28'
p9410
aS'3.0'
p9411
asS'[9.0, 23.0]'
p9412
(lp9413
S'24'
p9414
aS'7.0'
p9415
asS'[72.0, 150.0]'
p9416
(lp9417
S'27'
p9418
aS'4.0'
p9419
asS'[97.0, 99.0, 305.0]'
p9420
(lp9421
S'29'
p9422
aS'2.0'
p9423
asS'[71.0, 198.0, 217.0, 240.0]'
p9424
(lp9425
S'28'
p9426
aS'3.0'
p9427
asS'[26.0]'
p9428
(lp9429
S'20'
p9430
aS'11.0'
p9431
asS'[75.0, 217.0]'
p9432
(lp9433
S'25'
p9434
aS'6.0'
p9435
asS'[149.0]'
p9436
(lp9437
S'26'
p9438
aS'5.0'
p9439
asS'[5.0, 29.0]'
p9440
(lp9441
S'29'
p9442
aS'2.0'
p9443
asS'[186.0, 195.0]'
p9444
(lp9445
S'29'
p9446
aS'2.0'
p9447
asS'[153.0, 219.0]'
p9448
(lp9449
S'29'
p9450
aS'2.0'
p9451
asS'[103.0, 201.0]'
p9452
(lp9453
S'28'
p9454
aS'3.0'
p9455
asS'[58.0, 114.0]'
p9456
(lp9457
S'19'
p9458
aS'12.0'
p9459
asS'[63.0, 88.0]'
p9460
(lp9461
S'29'
p9462
aS'2.0'
p9463
asS'[125.0, 305.0]'
p9464
(lp9465
S'23'
p9466
aS'8.0'
p9467
asS'[72.0, 216.0, 242.0]'
p9468
(lp9469
S'29'
p9470
aS'2.0'
p9471
asS'[48.0, 52.0, 62.0]'
p9472
(lp9473
S'28'
p9474
aS'3.0'
p9475
asS'[80.0, 148.0]'
p9476
(lp9477
S'26'
p9478
aS'5.0'
p9479
asS'[20.0]'
p9480
(lp9481
S'26'
p9482
aS'5.0'
p9483
asS'[241.0, 305.0]'
p9484
(lp9485
S'11'
p9486
aS'22.0'
p9487
asS'[116.0, 124.0]'
p9488
(lp9489
S'28'
p9490
aS'3.0'
p9491
asS'[48.0, 62.0, 74.0]'
p9492
(lp9493
S'29'
p9494
aS'2.0'
p9495
asS'[77.0, 92.0]'
p9496
(lp9497
S'27'
p9498
aS'4.0'
p9499
asS'[32.0, 305.0]'
p9500
(lp9501
S'22'
p9502
aS'9.0'
p9503
asS'[89.0, 119.0]'
p9504
(lp9505
S'25'
p9506
aS'6.0'
p9507
asS'[75.0, 76.0, 154.0]'
p9508
(lp9509
S'29'
p9510
aS'2.0'
p9511
asS'[189.0, 243.0, 305.0]'
p9512
(lp9513
S'22'
p9514
aS'9.0'
p9515
asS'[247.0, 271.0, 305.0]'
p9516
(lp9517
S'29'
p9518
aS'2.0'
p9519
asS'[25.0, 136.0, 305.0]'
p9520
(lp9521
S'28'
p9522
aS'3.0'
p9523
asS'[81.0, 174.0, 218.0, 219.0]'
p9524
(lp9525
S'29'
p9526
aS'2.0'
p9527
asS'[185.0]'
p9528
(lp9529
S'26'
p9530
aS'5.0'
p9531
asS'[4.0, 18.0, 77.0]'
p9532
(lp9533
S'27'
p9534
aS'4.0'
p9535
asS'[116.0, 140.0]'
p9536
(lp9537
S'29'
p9538
aS'2.0'
p9539
asS'[71.0, 93.0, 96.0]'
p9540
(lp9541
S'29'
p9542
aS'2.0'
p9543
asS'[218.0, 219.0, 276.0, 305.0]'
p9544
(lp9545
S'29'
p9546
aS'2.0'
p9547
asS'[79.0, 138.0]'
p9548
(lp9549
S'29'
p9550
aS'2.0'
p9551
asS'[71.0, 74.0, 77.0, 155.0]'
p9552
(lp9553
S'29'
p9554
aS'2.0'
p9555
asS'[22.0]'
p9556
(lp9557
S'24'
p9558
aS'7.0'
p9559
asS'[51.0, 56.0]'
p9560
(lp9561
S'22'
p9562
aS'9.0'
p9563
asS'[72.0, 73.0, 74.0, 216.0]'
p9564
(lp9565
S'29'
p9566
aS'2.0'
p9567
asS'[138.0, 305.0]'
p9568
(lp9569
S'27'
p9570
aS'4.0'
p9571
asS'[75.0, 81.0, 217.0]'
p9572
(lp9573
S'28'
p9574
aS'3.0'
p9575
asS'[2.0, 145.0]'
p9576
(lp9577
S'29'
p9578
aS'2.0'
p9579
asS'[24.0]'
p9580
(lp9581
S'17'
p9582
aS'14.0'
p9583
asS'[71.0, 77.0, 150.0]'
p9584
(lp9585
S'27'
p9586
aS'4.0'
p9587
asS'[81.0, 217.0]'
p9588
(lp9589
S'28'
p9590
aS'3.0'
p9591
asS'[93.0, 135.0]'
p9592
(lp9593
S'29'
p9594
aS'2.0'
p9595
asS'[3.0, 78.0, 120.0]'
p9596
(lp9597
S'29'
p9598
aS'2.0'
p9599
asS'[241.0, 278.0]'
p9600
(lp9601
S'22'
p9602
aS'9.0'
p9603
asS'[96.0, 103.0, 124.0]'
p9604
(lp9605
S'29'
p9606
aS'2.0'
p9607
asS'[245.0, 253.0, 305.0]'
p9608
(lp9609
S'23'
p9610
aS'8.0'
p9611
asS'[51.0, 61.0, 71.0]'
p9612
(lp9613
S'29'
p9614
aS'2.0'
p9615
asS'[8.0, 122.0, 305.0]'
p9616
(lp9617
S'27'
p9618
aS'4.0'
p9619
asS'[51.0, 61.0, 73.0]'
p9620
(lp9621
S'28'
p9622
aS'3.0'
p9623
asS'[46.0, 90.0]'
p9624
(lp9625
S'19'
p9626
aS'12.0'
p9627
asS'[75.0, 178.0]'
p9628
(lp9629
S'28'
p9630
aS'3.0'
p9631
asS'[225.0, 282.0]'
p9632
(lp9633
S'29'
p9634
aS'2.0'
p9635
asS'[73.0, 74.0, 228.0]'
p9636
(lp9637
S'29'
p9638
aS'2.0'
p9639
asS'[187.0, 275.0, 305.0]'
p9640
(lp9641
S'23'
p9642
aS'8.0'
p9643
asS'[95.0, 103.0, 140.0]'
p9644
(lp9645
S'29'
p9646
aS'2.0'
p9647
asS'[71.0, 216.0]'
p9648
(lp9649
S'24'
p9650
aS'7.0'
p9651
asS'[52.0, 88.0]'
p9652
(lp9653
S'28'
p9654
aS'3.0'
p9655
asS'[74.0, 172.0, 217.0]'
p9656
(lp9657
S'26'
p9658
aS'5.0'
p9659
asS'[117.0, 305.0]'
p9660
(lp9661
S'25'
p9662
aS'6.0'
p9663
asS'[263.0]'
p9664
(lp9665
S'13'
p9666
aS'18.0'
p9667
asS'[248.0, 267.0]'
p9668
(lp9669
S'16'
p9670
aS'15.0'
p9671
asS'[194.0, 218.0]'
p9672
(lp9673
S'29'
p9674
aS'2.0'
p9675
asS'[183.0]'
p9676
(lp9677
S'20'
p9678
aS'11.0'
p9679
asS'[1.0, 78.0]'
p9680
(lp9681
S'29'
p9682
aS'2.0'
p9683
asS'[72.0, 73.0, 76.0, 82.0, 216.0]'
p9684
(lp9685
S'29'
p9686
aS'2.0'
p9687
asS'[71.0, 72.0, 225.0]'
p9688
(lp9689
S'28'
p9690
aS'3.0'
p9691
asS'[258.0, 282.0]'
p9692
(lp9693
S'29'
p9694
aS'2.0'
p9695
asS'[71.0, 208.0, 217.0]'
p9696
(lp9697
S'28'
p9698
aS'3.0'
p9699
asS'[198.0, 217.0]'
p9700
(lp9701
S'27'
p9702
aS'4.0'
p9703
asS'[75.0, 237.0]'
p9704
(lp9705
S'28'
p9706
aS'3.0'
p9707
asS'[75.0, 212.0]'
p9708
(lp9709
S'27'
p9710
aS'4.0'
p9711
asS'[71.0, 94.0]'
p9712
(lp9713
S'26'
p9714
aS'5.0'
p9715
asS'[3.0, 9.0, 121.0]'
p9716
(lp9717
S'29'
p9718
aS'2.0'
p9719
asS'[72.0, 73.0, 74.0, 193.0]'
p9720
(lp9721
S'29'
p9722
aS'2.0'
p9723
asS'[71.0, 73.0, 227.0]'
p9724
(lp9725
S'29'
p9726
aS'2.0'
p9727
asS'[241.0, 279.0]'
p9728
(lp9729
S'11'
p9730
aS'22.0'
p9731
asS'[219.0, 277.0, 305.0]'
p9732
(lp9733
S'27'
p9734
aS'4.0'
p9735
asS'[116.0, 124.0, 199.0]'
p9736
(lp9737
S'28'
p9738
aS'3.0'
p9739
asS'[7.0, 101.0]'
p9740
(lp9741
S'27'
p9742
aS'4.0'
p9743
asS'[22.0, 118.0]'
p9744
(lp9745
S'24'
p9746
aS'7.0'
p9747
asS'[52.0, 74.0, 95.0]'
p9748
(lp9749
S'28'
p9750
aS'3.0'
p9751
asS'[72.0, 208.0, 216.0]'
p9752
(lp9753
S'25'
p9754
aS'6.0'
p9755
asS'[205.0, 206.0]'
p9756
(lp9757
S'25'
p9758
aS'6.0'
p9759
asS'[270.0, 305.0]'
p9760
(lp9761
S'23'
p9762
aS'8.0'
p9763
asS'[16.0, 24.0, 32.0]'
p9764
(lp9765
S'28'
p9766
aS'3.0'
p9767
asS'[73.0, 74.0, 141.0]'
p9768
(lp9769
S'29'
p9770
aS'2.0'
p9771
asS'[181.0]'
p9772
(lp9773
g1925
aS'28.0'
p9774
asS'[79.0, 221.0]'
p9775
(lp9776
S'29'
p9777
aS'2.0'
p9778
asS'[72.0, 195.0, 203.0]'
p9779
(lp9780
S'29'
p9781
aS'2.0'
p9782
asS'[243.0, 305.0]'
p9783
(lp9784
S'11'
p9785
aS'22.0'
p9786
asS'[72.0, 73.0, 217.0]'
p9787
(lp9788
S'22'
p9789
aS'9.0'
p9790
asS'[178.0, 272.0]'
p9791
(lp9792
S'26'
p9793
aS'5.0'
p9794
asS'[75.0, 76.0, 150.0]'
p9795
(lp9796
S'29'
p9797
aS'2.0'
p9798
asS'[56.0, 90.0, 198.0]'
p9799
(lp9800
S'29'
p9801
aS'2.0'
p9802
asS'[225.0, 282.0, 305.0]'
p9803
(lp9804
S'29'
p9805
aS'2.0'
p9806
asS'[115.0, 179.0, 306.0]'
p9807
(lp9808
S'27'
p9809
aS'4.0'
p9810
asS'[217.0]'
p9811
(lp9812
g1925
aS'28.0'
p9813
asS'[153.0, 219.0, 305.0]'
p9814
(lp9815
S'29'
p9816
aS'2.0'
p9817
asS'[75.0, 235.0]'
p9818
(lp9819
S'25'
p9820
aS'6.0'
p9821
asS'[72.0, 195.0, 207.0]'
p9822
(lp9823
S'29'
p9824
aS'2.0'
p9825
asS'[189.0, 195.0, 244.0]'
p9826
(lp9827
S'29'
p9828
aS'2.0'
p9829
asS'[182.0]'
p9830
(lp9831
g1925
aS'28.0'
p9832
asS'[48.0, 72.0, 82.0, 216.0]'
p9833
(lp9834
S'29'
p9835
aS'2.0'
p9836
asS'[72.0, 76.0, 155.0, 216.0]'
p9837
(lp9838
S'29'
p9839
aS'2.0'
p9840
asS'[18.0, 77.0]'
p9841
(lp9842
S'17'
p9843
aS'14.0'
p9844
asS'[160.0, 305.0]'
p9845
(lp9846
S'26'
p9847
aS'5.0'
p9848
asS'[179.0, 198.0]'
p9849
(lp9850
g1543
aS'61.0'
p9851
asS'[21.0]'
p9852
(lp9853
S'23'
p9854
aS'8.0'
p9855
asS'[29.0]'
p9856
(lp9857
S'25'
p9858
aS'6.0'
p9859
asS'[270.0, 280.0, 305.0]'
p9860
(lp9861
S'26'
p9862
aS'5.0'
p9863
asS'[71.0, 72.0]'
p9864
(lp9865
S'28'
p9866
aS'3.0'
p9867
asS'[137.0]'
p9868
(lp9869
S'24'
p9870
aS'7.0'
p9871
asS'[74.0, 218.0, 219.0, 306.0]'
p9872
(lp9873
S'29'
p9874
aS'2.0'
p9875
asS'[18.0, 107.0]'
p9876
(lp9877
S'28'
p9878
aS'3.0'
p9879
asS'[167.0]'
p9880
(lp9881
S'10'
p9882
aS'23.0'
p9883
asS'[73.0, 96.0, 142.0]'
p9884
(lp9885
S'29'
p9886
aS'2.0'
p9887
asS'[72.0, 73.0, 74.0, 230.0]'
p9888
(lp9889
S'29'
p9890
aS'2.0'
p9891
asS'[55.0, 89.0, 119.0]'
p9892
(lp9893
S'25'
p9894
aS'6.0'
p9895
asS'[71.0, 73.0, 192.0, 217.0]'
p9896
(lp9897
S'29'
p9898
aS'2.0'
p9899
asS'[2.0, 71.0]'
p9900
(lp9901
S'28'
p9902
aS'3.0'
p9903
asS'[178.0, 305.0]'
p9904
(lp9905
g5503
aS'24.0'
p9906
asS'[73.0, 156.0, 192.0]'
p9907
(lp9908
S'28'
p9909
aS'3.0'
p9910
asS'[71.0, 72.0, 207.0, 216.0]'
p9911
(lp9912
S'28'
p9913
aS'3.0'
p9914
asS'[95.0, 100.0]'
p9915
(lp9916
S'28'
p9917
aS'3.0'
p9918
asS'[204.0, 217.0]'
p9919
(lp9920
S'28'
p9921
aS'3.0'
p9922
asS'[242.0, 248.0, 305.0]'
p9923
(lp9924
S'22'
p9925
aS'9.0'
p9926
asS'[104.0, 135.0]'
p9927
(lp9928
S'29'
p9929
aS'2.0'
p9930
asS'[111.0, 147.0]'
p9931
(lp9932
S'27'
p9933
aS'4.0'
p9934
asS'[13.0, 19.0]'
p9935
(lp9936
S'25'
p9937
aS'6.0'
p9938
asS'[81.0, 218.0, 219.0]'
p9939
(lp9940
S'29'
p9941
aS'2.0'
p9942
asS'[4.0, 18.0, 122.0]'
p9943
(lp9944
S'29'
p9945
aS'2.0'
p9946
asS'[153.0, 165.0, 305.0]'
p9947
(lp9948
S'23'
p9949
aS'8.0'
p9950
asS'[96.0]'
p9951
(lp9952
S'22'
p9953
aS'9.0'
p9954
asS'[261.0]'
p9955
(lp9956
S'13'
p9957
aS'18.0'
p9958
asS'[73.0, 95.0, 141.0]'
p9959
(lp9960
S'29'
p9961
aS'2.0'
p9962
asS'[72.0, 82.0, 217.0, 219.0]'
p9963
(lp9964
S'29'
p9965
aS'2.0'
p9966
asS'[47.0, 72.0]'
p9967
(lp9968
S'27'
p9969
aS'4.0'
p9970
asS'[8.0, 305.0]'
p9971
(lp9972
S'19'
p9973
aS'12.0'
p9974
asS'[40.0, 78.0, 91.0]'
p9975
(lp9976
S'29'
p9977
aS'2.0'
p9978
asS'[47.0, 76.0]'
p9979
(lp9980
S'27'
p9981
aS'4.0'
p9982
asS'[55.0, 137.0]'
p9983
(lp9984
S'24'
p9985
aS'7.0'
p9986
asS'[71.0, 73.0, 145.0]'
p9987
(lp9988
S'29'
p9989
aS'2.0'
p9990
asS'[135.0]'
p9991
(lp9992
S'22'
p9993
aS'9.0'
p9994
asS'[17.0, 143.0]'
p9995
(lp9996
S'29'
p9997
aS'2.0'
p9998
asS'[100.0, 161.0]'
p9999
(lp10000
S'28'
p10001
aS'3.0'
p10002
asS'[95.0]'
p10003
(lp10004
S'17'
p10005
aS'14.0'
p10006
asS'[180.0, 306.0]'
p10007
(lp10008
S'27'
p10009
aS'4.0'
p10010
asS'[235.0, 277.0, 305.0]'
p10011
(lp10012
S'25'
p10013
aS'6.0'
p10014
asS'[4.0, 126.0]'
p10015
(lp10016
S'29'
p10017
aS'2.0'
p10018
asS'[77.0, 198.0, 240.0]'
p10019
(lp10020
S'29'
p10021
aS'2.0'
p10022
asS'[71.0, 72.0, 150.0]'
p10023
(lp10024
S'28'
p10025
aS'3.0'
p10026
asS'[71.0, 96.0, 127.0]'
p10027
(lp10028
S'29'
p10029
aS'2.0'
p10030
asS'[98.0, 131.0]'
p10031
(lp10032
S'29'
p10033
aS'2.0'
p10034
asS'[42.0, 216.0]'
p10035
(lp10036
S'26'
p10037
aS'5.0'
p10038
asS'[108.0, 305.0]'
p10039
(lp10040
S'28'
p10041
aS'3.0'
p10042
asS'[78.0]'
p10043
(lp10044
g3655
aS'44.0'
p10045
asS'[117.0, 219.0, 305.0]'
p10046
(lp10047
S'27'
p10048
aS'4.0'
p10049
asS'[72.0, 76.0, 235.0]'
p10050
(lp10051
S'25'
p10052
aS'6.0'
p10053
asS'[21.0, 23.0]'
p10054
(lp10055
S'29'
p10056
aS'2.0'
p10057
asS'[71.0, 72.0, 73.0, 145.0]'
p10058
(lp10059
S'29'
p10060
aS'2.0'
p10061
asS'[71.0, 72.0, 226.0]'
p10062
(lp10063
S'28'
p10064
aS'3.0'
p10065
asS'[94.0]'
p10066
(lp10067
S'26'
p10068
aS'5.0'
p10069
asS'[36.0, 102.0, 121.0]'
p10070
(lp10071
S'29'
p10072
aS'2.0'
p10073
asS'[198.0, 216.0, 244.0]'
p10074
(lp10075
S'29'
p10076
aS'2.0'
p10077
asS'[46.0, 86.0]'
p10078
(lp10079
S'27'
p10080
aS'4.0'
p10081
asS'[4.0, 122.0]'
p10082
(lp10083
S'29'
p10084
aS'2.0'
p10085
asS'[161.0]'
p10086
(lp10087
S'27'
p10088
aS'4.0'
p10089
asS'[72.0, 78.0, 235.0]'
p10090
(lp10091
S'27'
p10092
aS'4.0'
p10093
asS'[46.0, 79.0, 119.0]'
p10094
(lp10095
S'28'
p10096
aS'3.0'
p10097
asS'[137.0, 160.0, 305.0]'
p10098
(lp10099
S'29'
p10100
aS'2.0'
p10101
asS'[231.0, 305.0]'
p10102
(lp10103
S'16'
p10104
aS'15.0'
p10105
asS'[74.0, 81.0, 219.0]'
p10106
(lp10107
S'29'
p10108
aS'2.0'
p10109
asS'[35.0, 40.0]'
p10110
(lp10111
S'29'
p10112
aS'2.0'
p10113
asS'[124.0, 199.0]'
p10114
(lp10115
S'27'
p10116
aS'4.0'
p10117
asS'[126.0, 305.0]'
p10118
(lp10119
S'24'
p10120
aS'7.0'
p10121
asS'[144.0, 159.0]'
p10122
(lp10123
S'27'
p10124
aS'4.0'
p10125
asS'[180.0]'
p10126
(lp10127
S'11'
p10128
aS'22.0'
p10129
asS'[72.0, 154.0]'
p10130
(lp10131
S'13'
p10132
aS'18.0'
p10133
asS'[96.0, 99.0]'
p10134
(lp10135
S'29'
p10136
aS'2.0'
p10137
asS'[178.0, 212.0]'
p10138
(lp10139
S'29'
p10140
aS'2.0'
p10141
asS'[74.0]'
p10142
(lp10143
g347
aS'25.0'
p10144
asS'[71.0, 188.0]'
p10145
(lp10146
S'26'
p10147
aS'5.0'
p10148
asS'[44.0, 119.0]'
p10149
(lp10150
S'29'
p10151
aS'2.0'
p10152
asS'[239.0, 248.0]'
p10153
(lp10154
S'29'
p10155
aS'2.0'
p10156
asS'[71.0, 75.0, 237.0]'
p10157
(lp10158
S'28'
p10159
aS'3.0'
p10160
asS'[18.0, 108.0]'
p10161
(lp10162
S'28'
p10163
aS'3.0'
p10164
asS'[81.0, 174.0, 217.0, 218.0]'
p10165
(lp10166
S'29'
p10167
aS'2.0'
p10168
asS'[260.0, 305.0]'
p10169
(lp10170
S'13'
p10171
aS'18.0'
p10172
asS'[71.0, 217.0, 226.0]'
p10173
(lp10174
S'29'
p10175
aS'2.0'
p10176
asS'[71.0, 72.0, 73.0, 192.0, 217.0]'
p10177
(lp10178
S'29'
p10179
aS'2.0'
p10180
asS'[80.0, 111.0]'
p10181
(lp10182
S'29'
p10183
aS'2.0'
p10184
asS'[87.0, 88.0]'
p10185
(lp10186
S'29'
p10187
aS'2.0'
p10188
asS'[62.0, 75.0, 177.0]'
p10189
(lp10190
S'29'
p10191
aS'2.0'
p10192
asS'[55.0, 118.0]'
p10193
(lp10194
S'26'
p10195
aS'5.0'
p10196
asS'[55.0, 177.0]'
p10197
(lp10198
S'29'
p10199
aS'2.0'
p10200
asS'[238.0, 281.0]'
p10201
(lp10202
S'10'
p10203
aS'23.0'
p10204
asS'[71.0, 72.0, 73.0, 228.0]'
p10205
(lp10206
S'29'
p10207
aS'2.0'
p10208
asS'[254.0, 277.0, 305.0]'
p10209
(lp10210
S'28'
p10211
aS'3.0'
p10212
asS'[117.0, 189.0, 199.0]'
p10213
(lp10214
S'29'
p10215
aS'2.0'
p10216
asS'[98.0, 139.0, 305.0]'
p10217
(lp10218
S'29'
p10219
aS'2.0'
p10220
asS'[163.0]'
p10221
(lp10222
S'14'
p10223
aS'17.0'
p10224
asS'[96.0, 124.0, 305.0]'
p10225
(lp10226
S'29'
p10227
aS'2.0'
p10228
asS'[120.0, 184.0]'
p10229
(lp10230
S'29'
p10231
aS'2.0'
p10232
asS'[71.0, 74.0, 145.0]'
p10233
(lp10234
S'26'
p10235
aS'5.0'
p10236
asS'[71.0, 215.0]'
p10237
(lp10238
S'24'
p10239
aS'7.0'
p10240
asS'[72.0, 74.0, 218.0]'
p10241
(lp10242
S'29'
p10243
aS'2.0'
p10244
asS'[45.0, 137.0]'
p10245
(lp10246
S'29'
p10247
aS'2.0'
p10248
asS'[247.0, 264.0]'
p10249
(lp10250
S'16'
p10251
aS'15.0'
p10252
asS'[5.0, 23.0, 29.0, 40.0]'
p10253
(lp10254
S'29'
p10255
aS'2.0'
p10256
asS'[100.0, 120.0]'
p10257
(lp10258
S'26'
p10259
aS'5.0'
p10260
asS'[250.0, 274.0, 305.0]'
p10261
(lp10262
S'28'
p10263
aS'3.0'
p10264
asS'[119.0]'
p10265
(lp10266
S'25'
p10267
aS'6.0'
p10268
asS'[93.0, 139.0]'
p10269
(lp10270
S'28'
p10271
aS'3.0'
p10272
asS'[71.0, 73.0, 74.0]'
p10273
(lp10274
S'29'
p10275
aS'2.0'
p10276
asS'[118.0, 143.0]'
p10277
(lp10278
S'29'
p10279
aS'2.0'
p10280
asS'[245.0, 269.0, 305.0]'
p10281
(lp10282
S'27'
p10283
aS'4.0'
p10284
asS'[43.0]'
p10285
(lp10286
S'23'
p10287
aS'8.0'
p10288
asS'[169.0, 252.0, 305.0]'
p10289
(lp10290
S'28'
p10291
aS'3.0'
p10292
asS'[70.0]'
p10293
(lp10294
S'19'
p10295
aS'12.0'
p10296
asS'[244.0, 275.0]'
p10297
(lp10298
S'24'
p10299
aS'7.0'
p10300
asS'[35.0, 101.0]'
p10301
(lp10302
S'26'
p10303
aS'5.0'
p10304
asS'[153.0, 218.0, 219.0, 305.0]'
p10305
(lp10306
S'29'
p10307
aS'2.0'
p10308
asS'[55.0, 95.0, 177.0]'
p10309
(lp10310
S'29'
p10311
aS'2.0'
p10312
asS'[59.0]'
p10313
(lp10314
S'28'
p10315
aS'3.0'
p10316
asS'[48.0, 72.0, 82.0]'
p10317
(lp10318
S'29'
p10319
aS'2.0'
p10320
asS'[115.0]'
p10321
(lp10322
S'11'
p10323
aS'22.0'
p10324
asS'[63.0, 113.0]'
p10325
(lp10326
S'29'
p10327
aS'2.0'
p10328
asS'[117.0]'
p10329
(lp10330
S'24'
p10331
aS'7.0'
p10332
asS'[72.0, 82.0, 219.0]'
p10333
(lp10334
S'29'
p10335
aS'2.0'
p10336
asS'[115.0, 179.0]'
p10337
(lp10338
S'11'
p10339
aS'22.0'
p10340
asS'[167.0, 276.0]'
p10341
(lp10342
S'29'
p10343
aS'2.0'
p10344
asS'[76.0, 155.0]'
p10345
(lp10346
S'29'
p10347
aS'2.0'
p10348
asS'[108.0, 142.0]'
p10349
(lp10350
S'29'
p10351
aS'2.0'
p10352
asS'[198.0, 210.0, 217.0]'
p10353
(lp10354
S'27'
p10355
aS'4.0'
p10356
asS'[8.0, 102.0, 121.0, 305.0]'
p10357
(lp10358
S'28'
p10359
aS'3.0'
p10360
asS'[225.0, 274.0]'
p10361
(lp10362
S'15'
p10363
aS'16.0'
p10364
asS'[279.0]'
p10365
(lp10366
g347
aS'25.0'
p10367
asS'[228.0]'
p10368
(lp10369
S'15'
p10370
aS'16.0'
p10371
asS'[17.0, 108.0]'
p10372
(lp10373
S'27'
p10374
aS'4.0'
p10375
asS'[217.0, 218.0]'
p10376
(lp10377
S'29'
p10378
aS'2.0'
p10379
asS'[3.0, 121.0]'
p10380
(lp10381
S'28'
p10382
aS'3.0'
p10383
asS'[2.0, 89.0]'
p10384
(lp10385
S'27'
p10386
aS'4.0'
p10387
asS'[72.0, 74.0, 217.0, 218.0]'
p10388
(lp10389
S'29'
p10390
aS'2.0'
p10391
asS'[71.0, 195.0, 217.0]'
p10392
(lp10393
S'29'
p10394
aS'2.0'
p10395
asS'[189.0, 244.0]'
p10396
(lp10397
S'27'
p10398
aS'4.0'
p10399
asS'[55.0, 78.0, 198.0]'
p10400
(lp10401
S'28'
p10402
aS'3.0'
p10403
asS'[71.0, 127.0]'
p10404
(lp10405
S'26'
p10406
aS'5.0'
p10407
asS'[268.0, 270.0, 305.0]'
p10408
(lp10409
S'29'
p10410
aS'2.0'
p10411
asS'[72.0, 78.0, 218.0]'
p10412
(lp10413
S'28'
p10414
aS'3.0'
p10415
asS'[71.0, 74.0, 75.0, 216.0]'
p10416
(lp10417
S'28'
p10418
aS'3.0'
p10419
asS'[76.0]'
p10420
(lp10421
g710
aS'70.0'
p10422
asS'[76.0, 255.0]'
p10423
(lp10424
S'29'
p10425
aS'2.0'
p10426
asS'[41.0]'
p10427
(lp10428
S'25'
p10429
aS'6.0'
p10430
asS'[71.0, 144.0, 154.0]'
p10431
(lp10432
S'29'
p10433
aS'2.0'
p10434
asS'[74.0, 185.0]'
p10435
(lp10436
S'27'
p10437
aS'4.0'
p10438
asS'[207.0, 216.0]'
p10439
(lp10440
S'18'
p10441
aS'13.0'
p10442
asS'[46.0, 62.0, 90.0]'
p10443
(lp10444
S'29'
p10445
aS'2.0'
p10446
asS'[103.0, 124.0]'
p10447
(lp10448
S'29'
p10449
aS'2.0'
p10450
asS'[239.0, 274.0, 305.0]'
p10451
(lp10452
S'23'
p10453
aS'8.0'
p10454
asS'[73.0, 74.0]'
p10455
(lp10456
S'29'
p10457
aS'2.0'
p10458
asS'[181.0, 198.0]'
p10459
(lp10460
S'28'
p10461
aS'3.0'
p10462
asS'[45.0, 61.0]'
p10463
(lp10464
S'28'
p10465
aS'3.0'
p10466
asS'[96.0, 124.0]'
p10467
(lp10468
S'29'
p10469
aS'2.0'
p10470
asS'[218.0, 276.0]'
p10471
(lp10472
S'29'
p10473
aS'2.0'
p10474
as.